ARM GAS  C:\Users\Jesus\AppData\Local\Temp\cc071y2F.s 			page 1


   1              		.syntax unified
   2              		.cpu cortex-m0
   3              		.fpu softvfp
   4              		.eabi_attribute 20, 1
   5              		.eabi_attribute 21, 1
   6              		.eabi_attribute 23, 3
   7              		.eabi_attribute 24, 1
   8              		.eabi_attribute 25, 1
   9              		.eabi_attribute 26, 1
  10              		.eabi_attribute 30, 1
  11              		.eabi_attribute 34, 0
  12              		.eabi_attribute 18, 4
  13              		.thumb
  14              		.syntax unified
  15              		.file	"CyLib.c"
  16              		.text
  17              	.Ltext0:
  18              		.cfi_sections	.debug_frame
  19              		.section	.text.CySysClkImoStart,"ax",%progbits
  20              		.align	2
  21              		.global	CySysClkImoStart
  22              		.code	16
  23              		.thumb_func
  24              		.type	CySysClkImoStart, %function
  25              	CySysClkImoStart:
  26              	.LFB0:
  27              		.file 1 "Generated_Source\\PSoC4\\CyLib.c"
   1:Generated_Source\PSoC4/CyLib.c **** /***************************************************************************//**
   2:Generated_Source\PSoC4/CyLib.c **** * \file CyLib.c
   3:Generated_Source\PSoC4/CyLib.c **** * \version 5.90
   4:Generated_Source\PSoC4/CyLib.c **** *
   5:Generated_Source\PSoC4/CyLib.c **** * \brief Provides a system API for the Clocking, Interrupts, SysTick, and
   6:Generated_Source\PSoC4/CyLib.c **** * Voltage Detect.
   7:Generated_Source\PSoC4/CyLib.c **** *
   8:Generated_Source\PSoC4/CyLib.c **** * \note Documentation of the API's in this file is located in the PSoC 4 System
   9:Generated_Source\PSoC4/CyLib.c **** * Reference Guide provided with PSoC Creator.
  10:Generated_Source\PSoC4/CyLib.c **** *
  11:Generated_Source\PSoC4/CyLib.c **** ********************************************************************************
  12:Generated_Source\PSoC4/CyLib.c **** * \copyright
  13:Generated_Source\PSoC4/CyLib.c **** * Copyright 2010-2018, Cypress Semiconductor Corporation.  All rights reserved.
  14:Generated_Source\PSoC4/CyLib.c **** * You may use this file only in accordance with the license, terms, conditions,
  15:Generated_Source\PSoC4/CyLib.c **** * disclaimers, and limitations in the end user license agreement accompanying
  16:Generated_Source\PSoC4/CyLib.c **** * the software package with which this file was provided.
  17:Generated_Source\PSoC4/CyLib.c **** *******************************************************************************/
  18:Generated_Source\PSoC4/CyLib.c **** 
  19:Generated_Source\PSoC4/CyLib.c **** #include "CyLib.h"
  20:Generated_Source\PSoC4/CyLib.c **** 
  21:Generated_Source\PSoC4/CyLib.c **** /* CySysClkWriteImoFreq() || CySysClkImoEnableWcoLock() */
  22:Generated_Source\PSoC4/CyLib.c **** #if ((CY_IP_SRSSV2 && CY_IP_FMLT) || CY_IP_IMO_TRIMMABLE_BY_WCO)
  23:Generated_Source\PSoC4/CyLib.c ****     #include "CyFlash.h"
  24:Generated_Source\PSoC4/CyLib.c **** #endif /* (CY_IP_SRSSV2 && CY_IP_FMLT) */
  25:Generated_Source\PSoC4/CyLib.c **** 
  26:Generated_Source\PSoC4/CyLib.c **** /* Do not use these definitions directly in your application */
  27:Generated_Source\PSoC4/CyLib.c **** uint32 cydelayFreqHz  = CYDEV_BCLK__SYSCLK__HZ;
  28:Generated_Source\PSoC4/CyLib.c **** uint32 cydelayFreqKhz = (CYDEV_BCLK__SYSCLK__HZ + CY_DELAY_1K_MINUS_1_THRESHOLD) / CY_DELAY_1K_THRE
  29:Generated_Source\PSoC4/CyLib.c **** uint8  cydelayFreqMhz = (uint8)((CYDEV_BCLK__SYSCLK__HZ + CY_DELAY_1M_MINUS_1_THRESHOLD) / CY_DELAY
  30:Generated_Source\PSoC4/CyLib.c **** uint32 cydelay32kMs   = CY_DELAY_MS_OVERFLOW * ((CYDEV_BCLK__SYSCLK__HZ + CY_DELAY_1K_MINUS_1_THRES
ARM GAS  C:\Users\Jesus\AppData\Local\Temp\cc071y2F.s 			page 2


  31:Generated_Source\PSoC4/CyLib.c ****                         CY_DELAY_1K_THRESHOLD);
  32:Generated_Source\PSoC4/CyLib.c **** 
  33:Generated_Source\PSoC4/CyLib.c **** 
  34:Generated_Source\PSoC4/CyLib.c **** static cySysTickCallback CySysTickCallbacks[CY_SYS_SYST_NUM_OF_CALLBACKS];
  35:Generated_Source\PSoC4/CyLib.c **** static void CySysTickServiceCallbacks(void);
  36:Generated_Source\PSoC4/CyLib.c **** 
  37:Generated_Source\PSoC4/CyLib.c **** #if (CY_IP_PLL)
  38:Generated_Source\PSoC4/CyLib.c ****     static uint32 CySysClkPllGetBypassMode(uint32 pll);
  39:Generated_Source\PSoC4/CyLib.c ****     static cystatus CySysClkPllConfigChangeAllowed(uint32 pll);
  40:Generated_Source\PSoC4/CyLib.c **** #endif /* (CY_IP_PLL) */
  41:Generated_Source\PSoC4/CyLib.c **** 
  42:Generated_Source\PSoC4/CyLib.c **** 
  43:Generated_Source\PSoC4/CyLib.c **** /***************************************************************************//**
  44:Generated_Source\PSoC4/CyLib.c **** * Indicates whether or not the SysTick has been initialized. The variable is
  45:Generated_Source\PSoC4/CyLib.c **** * initialized to 0 and set to 1 the first time CySysTickStart() is called.
  46:Generated_Source\PSoC4/CyLib.c **** *
  47:Generated_Source\PSoC4/CyLib.c **** * This allows the component to restart without reinitialization after the first
  48:Generated_Source\PSoC4/CyLib.c **** * call to the CySysTickStart() routine.
  49:Generated_Source\PSoC4/CyLib.c **** *
  50:Generated_Source\PSoC4/CyLib.c **** * If reinitialization of the SysTick is required, call CySysTickInit() before
  51:Generated_Source\PSoC4/CyLib.c **** * calling CySysTickStart(). Alternatively, the SysTick can be reinitialized by
  52:Generated_Source\PSoC4/CyLib.c **** * calling the CySysTickInit() and CySysTickEnable() functions.
  53:Generated_Source\PSoC4/CyLib.c **** *******************************************************************************/
  54:Generated_Source\PSoC4/CyLib.c **** uint32 CySysTickInitVar = 0u;
  55:Generated_Source\PSoC4/CyLib.c **** 
  56:Generated_Source\PSoC4/CyLib.c **** 
  57:Generated_Source\PSoC4/CyLib.c **** #if(CY_IP_SRSSV2)
  58:Generated_Source\PSoC4/CyLib.c ****         /* Conversion between CySysClkWriteImoFreq() parameter and register's value */
  59:Generated_Source\PSoC4/CyLib.c ****         const uint8 cyImoFreqMhz2Reg[CY_SYS_CLK_IMO_FREQ_TABLE_SIZE] = {
  60:Generated_Source\PSoC4/CyLib.c ****             /*  3 MHz */ 0x03u,  /*  4 MHz */ 0x04u,  /*  5 MHz */ 0x05u,  /*  6 MHz */ 0x06u,
  61:Generated_Source\PSoC4/CyLib.c ****             /*  7 MHz */ 0x07u,  /*  8 MHz */ 0x08u,  /*  9 MHz */ 0x09u,  /* 10 MHz */ 0x0Au,
  62:Generated_Source\PSoC4/CyLib.c ****             /* 11 MHz */ 0x0Bu,  /* 12 MHz */ 0x0Cu,  /* 13 MHz */ 0x0Eu,  /* 14 MHz */ 0x0Fu,
  63:Generated_Source\PSoC4/CyLib.c ****             /* 15 MHz */ 0x10u,  /* 16 MHz */ 0x11u,  /* 17 MHz */ 0x12u,  /* 18 MHz */ 0x13u,
  64:Generated_Source\PSoC4/CyLib.c ****             /* 19 MHz */ 0x14u,  /* 20 MHz */ 0x15u,  /* 21 MHz */ 0x16u,  /* 22 MHz */ 0x17u,
  65:Generated_Source\PSoC4/CyLib.c ****             /* 23 MHz */ 0x18u,  /* 24 MHz */ 0x19u,  /* 25 MHz */ 0x1Bu,  /* 26 MHz */ 0x1Cu,
  66:Generated_Source\PSoC4/CyLib.c ****             /* 27 MHz */ 0x1Du,  /* 28 MHz */ 0x1Eu,  /* 29 MHz */ 0x1Fu,  /* 30 MHz */ 0x20u,
  67:Generated_Source\PSoC4/CyLib.c ****             /* 31 MHz */ 0x21u,  /* 32 MHz */ 0x22u,  /* 33 MHz */ 0x23u,  /* 34 MHz */ 0x25u,
  68:Generated_Source\PSoC4/CyLib.c ****             /* 35 MHz */ 0x26u,  /* 36 MHz */ 0x27u,  /* 37 MHz */ 0x28u,  /* 38 MHz */ 0x29u,
  69:Generated_Source\PSoC4/CyLib.c ****             /* 39 MHz */ 0x2Au,  /* 40 MHz */ 0x2Bu,  /* 41 MHz */ 0x2Eu,  /* 42 MHz */ 0x2Fu,
  70:Generated_Source\PSoC4/CyLib.c ****             /* 43 MHz */ 0x30u,  /* 44 MHz */ 0x31u,  /* 45 MHz */ 0x32u,  /* 46 MHz */ 0x33u,
  71:Generated_Source\PSoC4/CyLib.c ****             /* 47 MHz */ 0x34u,  /* 48 MHz */ 0x35u };
  72:Generated_Source\PSoC4/CyLib.c **** #endif /* (CY_IP_SRSSV2) */
  73:Generated_Source\PSoC4/CyLib.c **** 
  74:Generated_Source\PSoC4/CyLib.c **** /* Stored CY_SYS_CLK_IMO_TRIM4_REG when modified for USB lock */
  75:Generated_Source\PSoC4/CyLib.c **** #if (CY_IP_IMO_TRIMMABLE_BY_USB && CY_IP_SRSSV2)
  76:Generated_Source\PSoC4/CyLib.c ****     uint32 CySysClkImoTrim4 = 0u;
  77:Generated_Source\PSoC4/CyLib.c ****     uint32 CySysClkImoTrim5 = 0u;
  78:Generated_Source\PSoC4/CyLib.c **** #endif /* (CY_IP_IMO_TRIMMABLE_BY_USB && CY_IP_SRSSV2) */
  79:Generated_Source\PSoC4/CyLib.c **** 
  80:Generated_Source\PSoC4/CyLib.c **** /* Stored PUMP_SEL configuration during disable (IMO output by default) */
  81:Generated_Source\PSoC4/CyLib.c **** uint32 CySysClkPumpConfig = CY_SYS_CLK_PUMP_ENABLE;
  82:Generated_Source\PSoC4/CyLib.c **** 
  83:Generated_Source\PSoC4/CyLib.c **** 
  84:Generated_Source\PSoC4/CyLib.c **** /*******************************************************************************
  85:Generated_Source\PSoC4/CyLib.c **** * Function Name: CySysClkImoStart
  86:Generated_Source\PSoC4/CyLib.c **** ****************************************************************************//**
  87:Generated_Source\PSoC4/CyLib.c **** *
ARM GAS  C:\Users\Jesus\AppData\Local\Temp\cc071y2F.s 			page 3


  88:Generated_Source\PSoC4/CyLib.c **** * Enables the IMO.
  89:Generated_Source\PSoC4/CyLib.c **** *
  90:Generated_Source\PSoC4/CyLib.c **** * For PSoC 4100M / PSoC 4200M / PSoC 4000S / PSoC 4100S / PSoC 4500 / PSoC Analog 
  91:Generated_Source\PSoC4/CyLib.c **** * Coprocessor devices, this function will also enable WCO lock if selected in 
  92:Generated_Source\PSoC4/CyLib.c **** * the Design Wide Resources tab.
  93:Generated_Source\PSoC4/CyLib.c **** *
  94:Generated_Source\PSoC4/CyLib.c **** * For PSoC 4200L devices, this function will also enable USB lock if selected
  95:Generated_Source\PSoC4/CyLib.c **** * in the Design Wide Resources tab.
  96:Generated_Source\PSoC4/CyLib.c **** *
  97:Generated_Source\PSoC4/CyLib.c **** *******************************************************************************/
  98:Generated_Source\PSoC4/CyLib.c **** void CySysClkImoStart(void)
  99:Generated_Source\PSoC4/CyLib.c **** {
  28              		.loc 1 99 0
  29              		.cfi_startproc
  30              		@ args = 0, pretend = 0, frame = 0
  31              		@ frame_needed = 0, uses_anonymous_args = 0
  32              		@ link register save eliminated.
 100:Generated_Source\PSoC4/CyLib.c ****     CY_SYS_CLK_IMO_CONFIG_REG |= CY_SYS_CLK_IMO_CONFIG_ENABLE;
  33              		.loc 1 100 0
  34 0000 034A     		ldr	r2, .L2
  35 0002 1368     		ldr	r3, [r2]
  36 0004 8021     		movs	r1, #128
  37 0006 0906     		lsls	r1, r1, #24
  38 0008 0B43     		orrs	r3, r1
  39 000a 1360     		str	r3, [r2]
 101:Generated_Source\PSoC4/CyLib.c **** 
 102:Generated_Source\PSoC4/CyLib.c ****     #if (CY_IP_IMO_TRIMMABLE_BY_WCO)
 103:Generated_Source\PSoC4/CyLib.c ****         #if (CYDEV_IMO_TRIMMED_BY_WCO == 1u)
 104:Generated_Source\PSoC4/CyLib.c ****             CySysClkImoEnableWcoLock();
 105:Generated_Source\PSoC4/CyLib.c ****         #endif  /* (CYDEV_IMO_TRIMMED_BY_WCO == 1u) */
 106:Generated_Source\PSoC4/CyLib.c ****     #endif  /* (CY_IP_IMO_TRIMMABLE_BY_WCO) */
 107:Generated_Source\PSoC4/CyLib.c **** 
 108:Generated_Source\PSoC4/CyLib.c **** 
 109:Generated_Source\PSoC4/CyLib.c ****     #if (CY_IP_IMO_TRIMMABLE_BY_USB)
 110:Generated_Source\PSoC4/CyLib.c ****         #if (CYDEV_IMO_TRIMMED_BY_USB == 1u)
 111:Generated_Source\PSoC4/CyLib.c ****             CySysClkImoEnableUsbLock();
 112:Generated_Source\PSoC4/CyLib.c ****         #endif  /* (CYDEV_IMO_TRIMMED_BY_USB == 1u) */
 113:Generated_Source\PSoC4/CyLib.c ****     #endif  /* (CY_IP_IMO_TRIMMABLE_BY_USB) */
 114:Generated_Source\PSoC4/CyLib.c **** 
 115:Generated_Source\PSoC4/CyLib.c **** }
  40              		.loc 1 115 0
  41              		@ sp needed
  42 000c 7047     		bx	lr
  43              	.L3:
  44 000e C046     		.align	2
  45              	.L2:
  46 0010 08010B40 		.word	1074462984
  47              		.cfi_endproc
  48              	.LFE0:
  49              		.size	CySysClkImoStart, .-CySysClkImoStart
  50              		.section	.text.CySysClkImoStop,"ax",%progbits
  51              		.align	2
  52              		.global	CySysClkImoStop
  53              		.code	16
  54              		.thumb_func
  55              		.type	CySysClkImoStop, %function
  56              	CySysClkImoStop:
ARM GAS  C:\Users\Jesus\AppData\Local\Temp\cc071y2F.s 			page 4


  57              	.LFB1:
 116:Generated_Source\PSoC4/CyLib.c **** 
 117:Generated_Source\PSoC4/CyLib.c **** 
 118:Generated_Source\PSoC4/CyLib.c **** /*******************************************************************************
 119:Generated_Source\PSoC4/CyLib.c **** * Function Name: CySysClkImoStop
 120:Generated_Source\PSoC4/CyLib.c **** ****************************************************************************//**
 121:Generated_Source\PSoC4/CyLib.c **** *
 122:Generated_Source\PSoC4/CyLib.c **** * Disables the IMO.
 123:Generated_Source\PSoC4/CyLib.c **** *
 124:Generated_Source\PSoC4/CyLib.c **** * For PSoC 4100M / PSoC 4200M / PSoC 4200L / PSoC 4000S / PSoC 4100S / 
 125:Generated_Source\PSoC4/CyLib.c **** * PSoC 4500 / PSoC Analog Coprocessor devices, this function will also 
 126:Generated_Source\PSoC4/CyLib.c **** * disable WCO lock.
 127:Generated_Source\PSoC4/CyLib.c **** *
 128:Generated_Source\PSoC4/CyLib.c **** * For PSoC PSoC 4200L devices, this function will also disable USB lock.
 129:Generated_Source\PSoC4/CyLib.c **** *
 130:Generated_Source\PSoC4/CyLib.c **** *******************************************************************************/
 131:Generated_Source\PSoC4/CyLib.c **** void CySysClkImoStop(void)
 132:Generated_Source\PSoC4/CyLib.c **** {
  58              		.loc 1 132 0
  59              		.cfi_startproc
  60              		@ args = 0, pretend = 0, frame = 0
  61              		@ frame_needed = 0, uses_anonymous_args = 0
  62              		@ link register save eliminated.
 133:Generated_Source\PSoC4/CyLib.c ****     #if (CY_IP_IMO_TRIMMABLE_BY_WCO)
 134:Generated_Source\PSoC4/CyLib.c ****         CySysClkImoDisableWcoLock();
 135:Generated_Source\PSoC4/CyLib.c ****     #endif  /* (CY_IP_IMO_TRIMMABLE_BY_WCO) */
 136:Generated_Source\PSoC4/CyLib.c **** 
 137:Generated_Source\PSoC4/CyLib.c ****     #if (CY_IP_IMO_TRIMMABLE_BY_USB)
 138:Generated_Source\PSoC4/CyLib.c ****         CySysClkImoDisableUsbLock();
 139:Generated_Source\PSoC4/CyLib.c ****     #endif  /* (CY_IP_IMO_TRIMMABLE_BY_USB) */
 140:Generated_Source\PSoC4/CyLib.c **** 
 141:Generated_Source\PSoC4/CyLib.c ****     CY_SYS_CLK_IMO_CONFIG_REG &= ( uint32 ) ( ~( uint32 )CY_SYS_CLK_IMO_CONFIG_ENABLE);
  63              		.loc 1 141 0
  64 0000 024A     		ldr	r2, .L5
  65 0002 1368     		ldr	r3, [r2]
  66 0004 5B00     		lsls	r3, r3, #1
  67 0006 5B08     		lsrs	r3, r3, #1
  68 0008 1360     		str	r3, [r2]
 142:Generated_Source\PSoC4/CyLib.c **** }
  69              		.loc 1 142 0
  70              		@ sp needed
  71 000a 7047     		bx	lr
  72              	.L6:
  73              		.align	2
  74              	.L5:
  75 000c 08010B40 		.word	1074462984
  76              		.cfi_endproc
  77              	.LFE1:
  78              		.size	CySysClkImoStop, .-CySysClkImoStop
  79              		.section	.text.CySysClkWriteHfclkDirect,"ax",%progbits
  80              		.align	2
  81              		.global	CySysClkWriteHfclkDirect
  82              		.code	16
  83              		.thumb_func
  84              		.type	CySysClkWriteHfclkDirect, %function
  85              	CySysClkWriteHfclkDirect:
  86              	.LFB2:
ARM GAS  C:\Users\Jesus\AppData\Local\Temp\cc071y2F.s 			page 5


 143:Generated_Source\PSoC4/CyLib.c **** 
 144:Generated_Source\PSoC4/CyLib.c **** #if (CY_IP_IMO_TRIMMABLE_BY_WCO)
 145:Generated_Source\PSoC4/CyLib.c **** 
 146:Generated_Source\PSoC4/CyLib.c ****     /*******************************************************************************
 147:Generated_Source\PSoC4/CyLib.c ****     * Function Name: CySysClkImoEnableWcoLock
 148:Generated_Source\PSoC4/CyLib.c ****     ****************************************************************************//**
 149:Generated_Source\PSoC4/CyLib.c ****     *
 150:Generated_Source\PSoC4/CyLib.c ****     * Enables the IMO to WCO lock feature. This function works only if the WCO is
 151:Generated_Source\PSoC4/CyLib.c ****     * already enabled. If the WCO is not enabled then this function returns
 152:Generated_Source\PSoC4/CyLib.c ****     * without enabling the lock feature.
 153:Generated_Source\PSoC4/CyLib.c ****     *
 154:Generated_Source\PSoC4/CyLib.c ****     * It takes up to 20 ms for the IMO to stabilize. The delay is implemented with
 155:Generated_Source\PSoC4/CyLib.c ****     * CyDelay() function. The delay interval is measured based on the system
 156:Generated_Source\PSoC4/CyLib.c ****     * frequency defined by PSoC Creator at build time. If System clock frequency
 157:Generated_Source\PSoC4/CyLib.c ****     * is changed in runtime, the CyDelayFreq() with the appropriate parameter
 158:Generated_Source\PSoC4/CyLib.c ****     * should be called.
 159:Generated_Source\PSoC4/CyLib.c ****     *
 160:Generated_Source\PSoC4/CyLib.c ****     * For PSoC 4200L devices, note that the IMO can lock to either WCO or USB
 161:Generated_Source\PSoC4/CyLib.c ****     * but not both.
 162:Generated_Source\PSoC4/CyLib.c ****     *
 163:Generated_Source\PSoC4/CyLib.c ****     * This function is applicable for PSoC 4100M / PSoC 4200M / PSoC 4000S /
 164:Generated_Source\PSoC4/CyLib.c ****     * PSoC 4100S / PSoC 4500 / PSoC Analog Coprocessor / PSoC 4200L.
 165:Generated_Source\PSoC4/CyLib.c ****     *
 166:Generated_Source\PSoC4/CyLib.c ****     *******************************************************************************/
 167:Generated_Source\PSoC4/CyLib.c ****     void CySysClkImoEnableWcoLock(void)
 168:Generated_Source\PSoC4/CyLib.c ****     {
 169:Generated_Source\PSoC4/CyLib.c ****         #if(CY_IP_SRSSV2)
 170:Generated_Source\PSoC4/CyLib.c ****             uint32 i;
 171:Generated_Source\PSoC4/CyLib.c ****         #endif  /* (CY_IP_SRSSV2) */
 172:Generated_Source\PSoC4/CyLib.c **** 
 173:Generated_Source\PSoC4/CyLib.c ****         uint32 freq;
 174:Generated_Source\PSoC4/CyLib.c ****         uint8  interruptState;
 175:Generated_Source\PSoC4/CyLib.c ****         uint32 regTmp;
 176:Generated_Source\PSoC4/CyLib.c ****         uint32 lfLimit = 0u;
 177:Generated_Source\PSoC4/CyLib.c ****         volatile uint32 flashCtlReg;
 178:Generated_Source\PSoC4/CyLib.c **** 
 179:Generated_Source\PSoC4/CyLib.c ****         if (0u != CySysClkWcoEnabled())
 180:Generated_Source\PSoC4/CyLib.c ****         {
 181:Generated_Source\PSoC4/CyLib.c ****             interruptState = CyEnterCriticalSection();
 182:Generated_Source\PSoC4/CyLib.c **** 
 183:Generated_Source\PSoC4/CyLib.c ****             /* Set oscillator interface control port to WCO */
 184:Generated_Source\PSoC4/CyLib.c ****             #if (CY_IP_IMO_TRIMMABLE_BY_WCO && CY_IP_IMO_TRIMMABLE_BY_USB)
 185:Generated_Source\PSoC4/CyLib.c ****                 CY_SYS_CLK_OSCINTF_CTL_REG =
 186:Generated_Source\PSoC4/CyLib.c ****                     (CY_SYS_CLK_OSCINTF_CTL_REG & (uint32) ~CY_SYS_CLK_OSCINTF_CTL_PORT_SEL_MASK) |
 187:Generated_Source\PSoC4/CyLib.c ****                     CY_SYS_CLK_OSCINTF_CTL_PORT_SEL_WCO;
 188:Generated_Source\PSoC4/CyLib.c ****             #endif /* (CY_IP_IMO_TRIMMABLE_BY_WCO && CY_IP_IMO_TRIMMABLE_BY_USB) */
 189:Generated_Source\PSoC4/CyLib.c **** 
 190:Generated_Source\PSoC4/CyLib.c ****             /* Get current IMO frequency based on the register value */
 191:Generated_Source\PSoC4/CyLib.c ****             #if(CY_IP_SRSSV2)
 192:Generated_Source\PSoC4/CyLib.c ****                 freq = CY_SYS_CLK_IMO_MIN_FREQ_MHZ;
 193:Generated_Source\PSoC4/CyLib.c ****                 for(i = 0u; i < CY_SYS_CLK_IMO_FREQ_TABLE_SIZE; i++)
 194:Generated_Source\PSoC4/CyLib.c ****                 {
 195:Generated_Source\PSoC4/CyLib.c ****                     if ((uint8) (CY_SYS_CLK_IMO_TRIM2_REG & CY_SYS_CLK_IMO_FREQ_BITS_MASK) == cyImo
 196:Generated_Source\PSoC4/CyLib.c ****                     {
 197:Generated_Source\PSoC4/CyLib.c ****                         freq = i + CY_SYS_CLK_IMO_FREQ_TABLE_OFFSET;
 198:Generated_Source\PSoC4/CyLib.c ****                         break;
 199:Generated_Source\PSoC4/CyLib.c ****                     }
ARM GAS  C:\Users\Jesus\AppData\Local\Temp\cc071y2F.s 			page 6


 200:Generated_Source\PSoC4/CyLib.c ****                 }
 201:Generated_Source\PSoC4/CyLib.c ****             #else
 202:Generated_Source\PSoC4/CyLib.c ****                 /* Calculate frequency by shifting register field value and adding constant. */
 203:Generated_Source\PSoC4/CyLib.c ****                 #if(CY_IP_SRSSLT)
 204:Generated_Source\PSoC4/CyLib.c ****                     freq = (((uint32) ((CY_SYS_CLK_IMO_SELECT_REG & ((uint32) CY_SYS_CLK_IMO_SELECT
 205:Generated_Source\PSoC4/CyLib.c ****                                         CY_SYS_CLK_IMO_SELECT_FREQ_SHIFT) + CY_SYS_CLK_IMO_MIN_FREQ
 206:Generated_Source\PSoC4/CyLib.c ****                                       ((CY_SYS_CLK_SELECT_REG >> CY_SYS_CLK_SELECT_HFCLK_DIV_SHIFT)
 207:Generated_Source\PSoC4/CyLib.c ****                                        (uint32) CY_SYS_CLK_SELECT_HFCLK_DIV_MASK));
 208:Generated_Source\PSoC4/CyLib.c ****                 #else
 209:Generated_Source\PSoC4/CyLib.c ****                     freq = ((uint32) ((CY_SYS_CLK_IMO_SELECT_REG & ((uint32) CY_SYS_CLK_IMO_SELECT_
 210:Generated_Source\PSoC4/CyLib.c ****                                        CY_SYS_CLK_IMO_SELECT_FREQ_SHIFT) + CY_SYS_CLK_IMO_MIN_FREQ_
 211:Generated_Source\PSoC4/CyLib.c ****                 #endif  /* (CY_IP_SRSSLT) */
 212:Generated_Source\PSoC4/CyLib.c **** 
 213:Generated_Source\PSoC4/CyLib.c ****             #endif  /* (CY_IP_SRSSV2) */
 214:Generated_Source\PSoC4/CyLib.c ****             
 215:Generated_Source\PSoC4/CyLib.c ****             CY_SYS_CLK_IMO_TRIM1_REG = 0;
 216:Generated_Source\PSoC4/CyLib.c ****             
 217:Generated_Source\PSoC4/CyLib.c ****             /* For the WCO locking mode, the IMO gain needs to be CY_SYS_CLK_IMO_TRIM4_GAIN */
 218:Generated_Source\PSoC4/CyLib.c ****             #if(CY_IP_SRSSV2)
 219:Generated_Source\PSoC4/CyLib.c ****                 if ((CY_SYS_CLK_IMO_TRIM4_REG & CY_SYS_CLK_IMO_TRIM4_GAIN_MASK) == 0u)
 220:Generated_Source\PSoC4/CyLib.c ****                 {
 221:Generated_Source\PSoC4/CyLib.c ****                      CY_SYS_CLK_IMO_TRIM4_REG = (CY_SYS_CLK_IMO_TRIM4_REG & (uint32) ~CY_SYS_CLK_IM
 222:Generated_Source\PSoC4/CyLib.c ****                                                  CY_SYS_CLK_IMO_TRIM4_WCO_GAIN;
 223:Generated_Source\PSoC4/CyLib.c ****                 }
 224:Generated_Source\PSoC4/CyLib.c ****             #endif /* (CY_IP_SRSSV2) */
 225:Generated_Source\PSoC4/CyLib.c **** 
 226:Generated_Source\PSoC4/CyLib.c ****             regTmp  = CY_SYS_CLK_WCO_DPLL_REG & ~(CY_SYS_CLK_WCO_DPLL_MULT_MASK |
 227:Generated_Source\PSoC4/CyLib.c ****                                                   CY_SYS_CLK_WCO_CONFIG_DPLL_LF_IGAIN_MASK |
 228:Generated_Source\PSoC4/CyLib.c ****                                                   CY_SYS_CLK_WCO_CONFIG_DPLL_LF_PGAIN_MASK |
 229:Generated_Source\PSoC4/CyLib.c ****                                                   CY_SYS_CLK_WCO_CONFIG_DPLL_LF_LIMIT_MASK);
 230:Generated_Source\PSoC4/CyLib.c **** 
 231:Generated_Source\PSoC4/CyLib.c ****             /* Set multiplier to determine IMO frequency in multiples of the WCO frequency */
 232:Generated_Source\PSoC4/CyLib.c ****             regTmp |= (CY_SYS_CLK_WCO_DPLL_MULT_VALUE(freq) & CY_SYS_CLK_WCO_DPLL_MULT_MASK);
 233:Generated_Source\PSoC4/CyLib.c **** 
 234:Generated_Source\PSoC4/CyLib.c ****             /* Set DPLL Loop Filter Integral and Proportional Gains Setting */
 235:Generated_Source\PSoC4/CyLib.c ****             regTmp |= (CY_SYS_CLK_WCO_CONFIG_DPLL_LF_IGAIN | CY_SYS_CLK_WCO_CONFIG_DPLL_LF_PGAIN);
 236:Generated_Source\PSoC4/CyLib.c **** 
 237:Generated_Source\PSoC4/CyLib.c ****             CY_SYS_CLK_WCO_DPLL_REG = regTmp;
 238:Generated_Source\PSoC4/CyLib.c ****             
 239:Generated_Source\PSoC4/CyLib.c ****             flashCtlReg = CY_FLASH_CTL_REG;
 240:Generated_Source\PSoC4/CyLib.c ****             CySysFlashSetWaitCycles(CY_SYS_CLK_IMO_MAX_FREQ_MHZ);
 241:Generated_Source\PSoC4/CyLib.c ****             CY_SYS_CLK_WCO_CONFIG_REG |= CY_SYS_CLK_WCO_CONFIG_DPLL_ENABLE;
 242:Generated_Source\PSoC4/CyLib.c **** 
 243:Generated_Source\PSoC4/CyLib.c ****             regTmp  = CY_SYS_CLK_WCO_DPLL_REG & ~(CY_SYS_CLK_WCO_CONFIG_DPLL_LF_LIMIT_MASK);
 244:Generated_Source\PSoC4/CyLib.c ****             
 245:Generated_Source\PSoC4/CyLib.c ****             while (lfLimit < (CY_SYS_CLK_WCO_CONFIG_DPLL_LF_LIMIT_MAX - CY_SYS_CLK_WCO_CONFIG_DPLL_
 246:Generated_Source\PSoC4/CyLib.c ****             {
 247:Generated_Source\PSoC4/CyLib.c ****                 CyDelay(CY_SYS_CLK_WCO_DPLL_TIMEOUT_MS);
 248:Generated_Source\PSoC4/CyLib.c ****                 lfLimit += CY_SYS_CLK_WCO_CONFIG_DPLL_LF_LIMIT_STEP;
 249:Generated_Source\PSoC4/CyLib.c ****                 CY_SYS_CLK_WCO_DPLL_REG = (regTmp | (lfLimit << CY_SYS_CLK_WCO_CONFIG_DPLL_LF_LIMIT
 250:Generated_Source\PSoC4/CyLib.c ****             }
 251:Generated_Source\PSoC4/CyLib.c **** 
 252:Generated_Source\PSoC4/CyLib.c ****             CyDelay(CY_SYS_CLK_WCO_DPLL_TIMEOUT_MS);
 253:Generated_Source\PSoC4/CyLib.c ****             CY_SYS_CLK_WCO_DPLL_REG = (regTmp | (CY_SYS_CLK_WCO_CONFIG_DPLL_LF_LIMIT_MAX << 
 254:Generated_Source\PSoC4/CyLib.c ****                                                  CY_SYS_CLK_WCO_CONFIG_DPLL_LF_LIMIT_SHIFT));
 255:Generated_Source\PSoC4/CyLib.c **** 
 256:Generated_Source\PSoC4/CyLib.c ****             CY_FLASH_CTL_REG = flashCtlReg;
ARM GAS  C:\Users\Jesus\AppData\Local\Temp\cc071y2F.s 			page 7


 257:Generated_Source\PSoC4/CyLib.c **** 
 258:Generated_Source\PSoC4/CyLib.c ****             CyExitCriticalSection(interruptState);
 259:Generated_Source\PSoC4/CyLib.c ****         }
 260:Generated_Source\PSoC4/CyLib.c ****     }
 261:Generated_Source\PSoC4/CyLib.c **** 
 262:Generated_Source\PSoC4/CyLib.c **** 
 263:Generated_Source\PSoC4/CyLib.c ****     /*******************************************************************************
 264:Generated_Source\PSoC4/CyLib.c ****     * Function Name: CySysClkImoDisableWcoLock
 265:Generated_Source\PSoC4/CyLib.c ****     ****************************************************************************//**
 266:Generated_Source\PSoC4/CyLib.c ****     *
 267:Generated_Source\PSoC4/CyLib.c ****     * Disables the IMO to WCO lock feature.
 268:Generated_Source\PSoC4/CyLib.c ****     *
 269:Generated_Source\PSoC4/CyLib.c ****     * For PSoC 4200L devices, note that the IMO can lock to either WCO or USB
 270:Generated_Source\PSoC4/CyLib.c ****     * but not both.
 271:Generated_Source\PSoC4/CyLib.c ****     *
 272:Generated_Source\PSoC4/CyLib.c ****     * This function is applicable for PSoC 4100M / PSoC 4200M / PSoC 4000S /
 273:Generated_Source\PSoC4/CyLib.c ****     * PSoC 4100S / PSoC 4500 / PSoC Analog Coprocessor / PSoC 4200L.
 274:Generated_Source\PSoC4/CyLib.c ****     *
 275:Generated_Source\PSoC4/CyLib.c ****     *******************************************************************************/
 276:Generated_Source\PSoC4/CyLib.c ****     void CySysClkImoDisableWcoLock(void)
 277:Generated_Source\PSoC4/CyLib.c ****     {
 278:Generated_Source\PSoC4/CyLib.c ****         #if(CY_IP_SRSSV2)
 279:Generated_Source\PSoC4/CyLib.c ****             uint32 i;
 280:Generated_Source\PSoC4/CyLib.c ****         #endif  /* (CY_IP_SRSSV2) */
 281:Generated_Source\PSoC4/CyLib.c **** 
 282:Generated_Source\PSoC4/CyLib.c ****         uint32 freq;
 283:Generated_Source\PSoC4/CyLib.c ****         
 284:Generated_Source\PSoC4/CyLib.c ****         /* Get current IMO frequency based on the register value */
 285:Generated_Source\PSoC4/CyLib.c ****         #if(CY_IP_SRSSV2)
 286:Generated_Source\PSoC4/CyLib.c ****             freq = CY_SYS_CLK_IMO_MIN_FREQ_MHZ;
 287:Generated_Source\PSoC4/CyLib.c ****             for(i = 0u; i < CY_SYS_CLK_IMO_FREQ_TABLE_SIZE; i++)
 288:Generated_Source\PSoC4/CyLib.c ****             {
 289:Generated_Source\PSoC4/CyLib.c ****                 if ((uint8) (CY_SYS_CLK_IMO_TRIM2_REG & CY_SYS_CLK_IMO_FREQ_BITS_MASK) == cyImoFreq
 290:Generated_Source\PSoC4/CyLib.c ****                 {
 291:Generated_Source\PSoC4/CyLib.c ****                     freq = i + CY_SYS_CLK_IMO_FREQ_TABLE_OFFSET;
 292:Generated_Source\PSoC4/CyLib.c ****                     break;
 293:Generated_Source\PSoC4/CyLib.c ****                 }
 294:Generated_Source\PSoC4/CyLib.c ****             }
 295:Generated_Source\PSoC4/CyLib.c ****         #else
 296:Generated_Source\PSoC4/CyLib.c ****             /* Calculate frequency by shifting register field value and adding constant. */
 297:Generated_Source\PSoC4/CyLib.c ****             #if(CY_IP_SRSSLT)
 298:Generated_Source\PSoC4/CyLib.c ****                 freq = (((uint32) ((CY_SYS_CLK_IMO_SELECT_REG & ((uint32) CY_SYS_CLK_IMO_SELECT_FRE
 299:Generated_Source\PSoC4/CyLib.c ****                                     CY_SYS_CLK_IMO_SELECT_FREQ_SHIFT) + CY_SYS_CLK_IMO_MIN_FREQ_MHZ
 300:Generated_Source\PSoC4/CyLib.c ****                                   ((CY_SYS_CLK_SELECT_REG >> CY_SYS_CLK_SELECT_HFCLK_DIV_SHIFT) & 
 301:Generated_Source\PSoC4/CyLib.c ****                                    (uint32) CY_SYS_CLK_SELECT_HFCLK_DIV_MASK));
 302:Generated_Source\PSoC4/CyLib.c ****             #else
 303:Generated_Source\PSoC4/CyLib.c ****                 freq = ((uint32) ((CY_SYS_CLK_IMO_SELECT_REG & ((uint32) CY_SYS_CLK_IMO_SELECT_FREQ
 304:Generated_Source\PSoC4/CyLib.c ****                                    CY_SYS_CLK_IMO_SELECT_FREQ_SHIFT) + CY_SYS_CLK_IMO_MIN_FREQ_MHZ)
 305:Generated_Source\PSoC4/CyLib.c ****             #endif  /* (CY_IP_SRSSLT) */
 306:Generated_Source\PSoC4/CyLib.c **** 
 307:Generated_Source\PSoC4/CyLib.c ****         #endif  /* (CY_IP_SRSSV2) */
 308:Generated_Source\PSoC4/CyLib.c **** 
 309:Generated_Source\PSoC4/CyLib.c ****         CY_SYS_CLK_WCO_CONFIG_REG &= (uint32) ~CY_SYS_CLK_WCO_CONFIG_DPLL_ENABLE;
 310:Generated_Source\PSoC4/CyLib.c ****         
 311:Generated_Source\PSoC4/CyLib.c ****         #if(CY_IP_SRSSLT)
 312:Generated_Source\PSoC4/CyLib.c ****             CY_SYS_CLK_IMO_TRIM1_REG = CY_SFLASH_IMO_TRIM_REG(freq - CY_SYS_CLK_IMO_MIN_FREQ_MHZ);
 313:Generated_Source\PSoC4/CyLib.c ****         #else
ARM GAS  C:\Users\Jesus\AppData\Local\Temp\cc071y2F.s 			page 8


 314:Generated_Source\PSoC4/CyLib.c ****             CY_SYS_CLK_IMO_TRIM1_REG = CY_SFLASH_IMO_TRIM_REG(freq - CY_SYS_CLK_IMO_FREQ_TABLE_OFFS
 315:Generated_Source\PSoC4/CyLib.c ****         #endif
 316:Generated_Source\PSoC4/CyLib.c ****     }
 317:Generated_Source\PSoC4/CyLib.c **** 
 318:Generated_Source\PSoC4/CyLib.c **** 
 319:Generated_Source\PSoC4/CyLib.c ****     /*******************************************************************************
 320:Generated_Source\PSoC4/CyLib.c ****     * Function Name: CySysClkImoGetWcoLock
 321:Generated_Source\PSoC4/CyLib.c ****     ****************************************************************************//**
 322:Generated_Source\PSoC4/CyLib.c ****     *
 323:Generated_Source\PSoC4/CyLib.c ****     * Reports the IMO to WCO lock enable state.
 324:Generated_Source\PSoC4/CyLib.c ****     *
 325:Generated_Source\PSoC4/CyLib.c ****     * This function is applicable for PSoC 4100M / PSoC 4200M / PSoC 4000S /
 326:Generated_Source\PSoC4/CyLib.c ****     * PSoC 4100S / PSoC 4500 / PSoC Analog Coprocessor / PSoC 4200L.
 327:Generated_Source\PSoC4/CyLib.c ****     *
 328:Generated_Source\PSoC4/CyLib.c ****     * \return 1 if IMO to WCO lock is enabled.
 329:Generated_Source\PSoC4/CyLib.c ****     * \return 0 if IMO to WCO lock is disabled.
 330:Generated_Source\PSoC4/CyLib.c ****     *
 331:Generated_Source\PSoC4/CyLib.c ****     *******************************************************************************/
 332:Generated_Source\PSoC4/CyLib.c ****     uint32 CySysClkImoGetWcoLock(void)
 333:Generated_Source\PSoC4/CyLib.c ****     {
 334:Generated_Source\PSoC4/CyLib.c ****         return ((0u != (CY_SYS_CLK_WCO_CONFIG_REG & CY_SYS_CLK_WCO_CONFIG_DPLL_ENABLE)) ?
 335:Generated_Source\PSoC4/CyLib.c ****                 (uint32) 1u :
 336:Generated_Source\PSoC4/CyLib.c ****                 (uint32) 0u);
 337:Generated_Source\PSoC4/CyLib.c ****     }
 338:Generated_Source\PSoC4/CyLib.c **** 
 339:Generated_Source\PSoC4/CyLib.c **** #endif /* (CY_IP_IMO_TRIMMABLE_BY_WCO) */
 340:Generated_Source\PSoC4/CyLib.c **** 
 341:Generated_Source\PSoC4/CyLib.c **** 
 342:Generated_Source\PSoC4/CyLib.c **** #if (CY_IP_IMO_TRIMMABLE_BY_USB)
 343:Generated_Source\PSoC4/CyLib.c **** 
 344:Generated_Source\PSoC4/CyLib.c ****     /*******************************************************************************
 345:Generated_Source\PSoC4/CyLib.c ****     * Function Name: CySysClkImoEnableUsbLock
 346:Generated_Source\PSoC4/CyLib.c ****     ****************************************************************************//**
 347:Generated_Source\PSoC4/CyLib.c ****     *
 348:Generated_Source\PSoC4/CyLib.c ****     * Enables the IMO to USB lock feature.
 349:Generated_Source\PSoC4/CyLib.c ****     *
 350:Generated_Source\PSoC4/CyLib.c ****     * This function must be called before CySysClkWriteImoFreq().
 351:Generated_Source\PSoC4/CyLib.c ****     *
 352:Generated_Source\PSoC4/CyLib.c ****     * This function is called from CySysClkImoStart() function if USB lock
 353:Generated_Source\PSoC4/CyLib.c ****     * selected in the Design Wide Resources tab.
 354:Generated_Source\PSoC4/CyLib.c ****     *
 355:Generated_Source\PSoC4/CyLib.c ****     * This is applicable for PSoC 4200L family of devices only. For PSoC 4200L
 356:Generated_Source\PSoC4/CyLib.c ****     * devices, the IMO can lock to either WCO or USB, but not both.
 357:Generated_Source\PSoC4/CyLib.c ****     *
 358:Generated_Source\PSoC4/CyLib.c ****     *******************************************************************************/
 359:Generated_Source\PSoC4/CyLib.c ****     void CySysClkImoEnableUsbLock(void)
 360:Generated_Source\PSoC4/CyLib.c ****     {
 361:Generated_Source\PSoC4/CyLib.c ****         #if(CY_IP_SRSSV2)
 362:Generated_Source\PSoC4/CyLib.c ****             uint32 i;
 363:Generated_Source\PSoC4/CyLib.c ****             
 364:Generated_Source\PSoC4/CyLib.c ****             /* Check for new trim algorithm */
 365:Generated_Source\PSoC4/CyLib.c ****             uint32 CySysClkUsbCuSortTrim = ((CY_SFLASH_S1_TESTPGM_OLD_REV < (CY_SFLASH_S1_TESTPGM_R
 366:Generated_Source\PSoC4/CyLib.c ****                                                                             CY_SFLASH_S1_TESTPGM_RE
 367:Generated_Source\PSoC4/CyLib.c **** 
 368:Generated_Source\PSoC4/CyLib.c ****             /* Get current IMO frequency based on the register value */
 369:Generated_Source\PSoC4/CyLib.c ****             uint32 freq = CY_SYS_CLK_IMO_MIN_FREQ_MHZ;
 370:Generated_Source\PSoC4/CyLib.c **** 
ARM GAS  C:\Users\Jesus\AppData\Local\Temp\cc071y2F.s 			page 9


 371:Generated_Source\PSoC4/CyLib.c ****             for(i = 0u; i < CY_SYS_CLK_IMO_FREQ_TABLE_SIZE; i++)
 372:Generated_Source\PSoC4/CyLib.c ****             {
 373:Generated_Source\PSoC4/CyLib.c ****                 if ((uint8) (CY_SYS_CLK_IMO_TRIM2_REG & CY_SYS_CLK_IMO_FREQ_BITS_MASK) == cyImoFreq
 374:Generated_Source\PSoC4/CyLib.c ****                 {
 375:Generated_Source\PSoC4/CyLib.c ****                     freq = i + CY_SYS_CLK_IMO_FREQ_TABLE_OFFSET;
 376:Generated_Source\PSoC4/CyLib.c ****                     break;
 377:Generated_Source\PSoC4/CyLib.c ****                 }
 378:Generated_Source\PSoC4/CyLib.c ****             }
 379:Generated_Source\PSoC4/CyLib.c ****         #endif  /* (CY_IP_SRSSV2) */
 380:Generated_Source\PSoC4/CyLib.c ****         
 381:Generated_Source\PSoC4/CyLib.c ****         /* Set oscillator interface control port to USB */
 382:Generated_Source\PSoC4/CyLib.c ****         #if (CY_IP_IMO_TRIMMABLE_BY_WCO && CY_IP_IMO_TRIMMABLE_BY_USB)
 383:Generated_Source\PSoC4/CyLib.c ****             CY_SYS_CLK_OSCINTF_CTL_REG = (CY_SYS_CLK_OSCINTF_CTL_REG & (uint32) ~CY_SYS_CLK_OSCINTF
 384:Generated_Source\PSoC4/CyLib.c ****                                           CY_SYS_CLK_OSCINTF_CTL_PORT_SEL_USB;
 385:Generated_Source\PSoC4/CyLib.c ****         #endif /* (CY_IP_IMO_TRIMMABLE_BY_WCO && CY_IP_IMO_TRIMMABLE_BY_USB) */
 386:Generated_Source\PSoC4/CyLib.c **** 
 387:Generated_Source\PSoC4/CyLib.c ****         #if(CY_IP_SRSSV2)
 388:Generated_Source\PSoC4/CyLib.c ****            
 389:Generated_Source\PSoC4/CyLib.c ****             /* Save CY_SYS_CLK_IMO_TRIM4_REG and set IMO gain for USB lock */
 390:Generated_Source\PSoC4/CyLib.c ****             CySysClkImoTrim4 = CY_SYS_CLK_IMO_TRIM4_REG;
 391:Generated_Source\PSoC4/CyLib.c ****             
 392:Generated_Source\PSoC4/CyLib.c ****             if(0u != CySysClkUsbCuSortTrim)
 393:Generated_Source\PSoC4/CyLib.c ****             {
 394:Generated_Source\PSoC4/CyLib.c ****                 CySysClkImoTrim5 = CY_PWR_BG_TRIM5_REG;
 395:Generated_Source\PSoC4/CyLib.c ****                 
 396:Generated_Source\PSoC4/CyLib.c ****                 CY_SYS_CLK_IMO_TRIM4_REG = (CySysClkImoTrim4 & (uint32) ~CY_SYS_CLK_IMO_TRIM4_GAIN_
 397:Generated_Source\PSoC4/CyLib.c ****                                             CY_SFLASH_USBMODE_IMO_GAIN_TRIM_REG;
 398:Generated_Source\PSoC4/CyLib.c ****                 CY_PWR_BG_TRIM5_REG = CY_SFLASH_USBMODE_IMO_TEMPCO_REG;
 399:Generated_Source\PSoC4/CyLib.c ****                 
 400:Generated_Source\PSoC4/CyLib.c ****             }
 401:Generated_Source\PSoC4/CyLib.c ****             else
 402:Generated_Source\PSoC4/CyLib.c ****             {
 403:Generated_Source\PSoC4/CyLib.c ****                 CY_SYS_CLK_IMO_TRIM4_REG = (CySysClkImoTrim4 & (uint32) ~CY_SYS_CLK_IMO_TRIM4_GAIN_
 404:Generated_Source\PSoC4/CyLib.c ****                                             CY_SYS_CLK_IMO_TRIM4_USB_GAIN;
 405:Generated_Source\PSoC4/CyLib.c **** 
 406:Generated_Source\PSoC4/CyLib.c ****             }
 407:Generated_Source\PSoC4/CyLib.c **** 
 408:Generated_Source\PSoC4/CyLib.c ****             if (48u == freq)
 409:Generated_Source\PSoC4/CyLib.c ****             {
 410:Generated_Source\PSoC4/CyLib.c ****                 CY_SYS_CLK_IMO_TRIM1_REG = (0u != CySysClkUsbCuSortTrim) ? 
 411:Generated_Source\PSoC4/CyLib.c ****                                            (uint32)CY_SFLASH_CU_IMO_TRIM_USBMODE_48_REG :
 412:Generated_Source\PSoC4/CyLib.c ****                                            (uint32)CY_SFLASH_IMO_TRIM_USBMODE_48_REG;
 413:Generated_Source\PSoC4/CyLib.c ****             }
 414:Generated_Source\PSoC4/CyLib.c ****             else if (24u == freq)
 415:Generated_Source\PSoC4/CyLib.c ****             {
 416:Generated_Source\PSoC4/CyLib.c ****                 CY_SYS_CLK_IMO_TRIM1_REG = (0u != CySysClkUsbCuSortTrim) ? 
 417:Generated_Source\PSoC4/CyLib.c ****                                            (uint32)CY_SFLASH_CU_IMO_TRIM_USBMODE_24_REG :
 418:Generated_Source\PSoC4/CyLib.c ****                                            (uint32)CY_SFLASH_IMO_TRIM_USBMODE_24_REG;
 419:Generated_Source\PSoC4/CyLib.c ****             }
 420:Generated_Source\PSoC4/CyLib.c ****             else
 421:Generated_Source\PSoC4/CyLib.c ****             {
 422:Generated_Source\PSoC4/CyLib.c ****                 /* Do nothing */
 423:Generated_Source\PSoC4/CyLib.c ****             }
 424:Generated_Source\PSoC4/CyLib.c ****             
 425:Generated_Source\PSoC4/CyLib.c ****         #endif  /* (CY_IP_SRSSV2) */
 426:Generated_Source\PSoC4/CyLib.c **** 
 427:Generated_Source\PSoC4/CyLib.c ****         CY_SYS_CLK_USBDEVv2_CR1_REG |= CY_SYS_CLK_USBDEVv2_CR1_ENABLE_LOCK;
ARM GAS  C:\Users\Jesus\AppData\Local\Temp\cc071y2F.s 			page 10


 428:Generated_Source\PSoC4/CyLib.c ****     }
 429:Generated_Source\PSoC4/CyLib.c **** 
 430:Generated_Source\PSoC4/CyLib.c **** 
 431:Generated_Source\PSoC4/CyLib.c ****     /*******************************************************************************
 432:Generated_Source\PSoC4/CyLib.c ****     * Function Name: CySysClkImoDisableUsbLock
 433:Generated_Source\PSoC4/CyLib.c ****     ****************************************************************************//**
 434:Generated_Source\PSoC4/CyLib.c ****     *
 435:Generated_Source\PSoC4/CyLib.c ****     * Disables the IMO to USB lock feature.
 436:Generated_Source\PSoC4/CyLib.c ****     *
 437:Generated_Source\PSoC4/CyLib.c ****     * This function is called from CySysClkImoStop() function if USB lock selected
 438:Generated_Source\PSoC4/CyLib.c ****     * in the Design Wide Resources tab.
 439:Generated_Source\PSoC4/CyLib.c ****     *
 440:Generated_Source\PSoC4/CyLib.c ****     * This is applicable for PSoC 4200L family of devices only. For PSoC 4200L
 441:Generated_Source\PSoC4/CyLib.c ****     * devices, the IMO can lock to either WCO or USB, but not both.
 442:Generated_Source\PSoC4/CyLib.c ****     *
 443:Generated_Source\PSoC4/CyLib.c ****     *******************************************************************************/
 444:Generated_Source\PSoC4/CyLib.c ****     void CySysClkImoDisableUsbLock(void)
 445:Generated_Source\PSoC4/CyLib.c ****     {
 446:Generated_Source\PSoC4/CyLib.c ****         #if(CY_IP_SRSSV2)
 447:Generated_Source\PSoC4/CyLib.c ****             uint32 i;
 448:Generated_Source\PSoC4/CyLib.c ****             
 449:Generated_Source\PSoC4/CyLib.c ****             /* Check for new trim algorithm */
 450:Generated_Source\PSoC4/CyLib.c ****             uint32 CySysClkUsbCuSortTrim = ((CY_SFLASH_S1_TESTPGM_OLD_REV < (CY_SFLASH_S1_TESTPGM_R
 451:Generated_Source\PSoC4/CyLib.c ****                                                                             CY_SFLASH_S1_TESTPGM_RE
 452:Generated_Source\PSoC4/CyLib.c **** 
 453:Generated_Source\PSoC4/CyLib.c ****             /* Get current IMO frequency based on the register value */
 454:Generated_Source\PSoC4/CyLib.c ****             uint32 freq = CY_SYS_CLK_IMO_MIN_FREQ_MHZ;;
 455:Generated_Source\PSoC4/CyLib.c **** 
 456:Generated_Source\PSoC4/CyLib.c ****             for(i = 0u; i < CY_SYS_CLK_IMO_FREQ_TABLE_SIZE; i++)
 457:Generated_Source\PSoC4/CyLib.c ****             {
 458:Generated_Source\PSoC4/CyLib.c ****                 if ((uint8) (CY_SYS_CLK_IMO_TRIM2_REG & CY_SYS_CLK_IMO_FREQ_BITS_MASK) == cyImoFreq
 459:Generated_Source\PSoC4/CyLib.c ****                 {
 460:Generated_Source\PSoC4/CyLib.c ****                     freq = i + CY_SYS_CLK_IMO_FREQ_TABLE_OFFSET;
 461:Generated_Source\PSoC4/CyLib.c ****                     break;
 462:Generated_Source\PSoC4/CyLib.c ****                 }
 463:Generated_Source\PSoC4/CyLib.c ****             }           
 464:Generated_Source\PSoC4/CyLib.c ****         #endif  /* (CY_IP_SRSSV2) */
 465:Generated_Source\PSoC4/CyLib.c ****         
 466:Generated_Source\PSoC4/CyLib.c ****         CY_SYS_CLK_USBDEVv2_CR1_REG &= (uint32) ~CY_SYS_CLK_USBDEVv2_CR1_ENABLE_LOCK;
 467:Generated_Source\PSoC4/CyLib.c **** 
 468:Generated_Source\PSoC4/CyLib.c ****         #if(CY_IP_SRSSV2)
 469:Generated_Source\PSoC4/CyLib.c ****             /* Restore CY_SYS_CLK_IMO_TRIM4_REG */
 470:Generated_Source\PSoC4/CyLib.c ****             CY_SYS_CLK_IMO_TRIM4_REG = ((CY_SYS_CLK_IMO_TRIM4_REG & (uint32) ~CY_SYS_CLK_IMO_TRIM4_
 471:Generated_Source\PSoC4/CyLib.c ****                                         (CySysClkImoTrim4 & CY_SYS_CLK_IMO_TRIM4_GAIN_MASK));
 472:Generated_Source\PSoC4/CyLib.c **** 
 473:Generated_Source\PSoC4/CyLib.c ****             if(0u != CySysClkUsbCuSortTrim)
 474:Generated_Source\PSoC4/CyLib.c ****             {
 475:Generated_Source\PSoC4/CyLib.c ****                 CY_PWR_BG_TRIM5_REG = CySysClkImoTrim5;
 476:Generated_Source\PSoC4/CyLib.c ****             }
 477:Generated_Source\PSoC4/CyLib.c ****             
 478:Generated_Source\PSoC4/CyLib.c ****             CY_SYS_CLK_IMO_TRIM1_REG = CY_SFLASH_IMO_TRIM_REG(freq - CY_SYS_CLK_IMO_FREQ_TABLE_OFFS
 479:Generated_Source\PSoC4/CyLib.c ****             
 480:Generated_Source\PSoC4/CyLib.c ****         #endif  /* (CY_IP_SRSSV2) */
 481:Generated_Source\PSoC4/CyLib.c ****     }
 482:Generated_Source\PSoC4/CyLib.c **** 
 483:Generated_Source\PSoC4/CyLib.c **** 
 484:Generated_Source\PSoC4/CyLib.c ****     /*******************************************************************************
ARM GAS  C:\Users\Jesus\AppData\Local\Temp\cc071y2F.s 			page 11


 485:Generated_Source\PSoC4/CyLib.c ****     * Function Name: CySysClkImoGetUsbLock
 486:Generated_Source\PSoC4/CyLib.c ****     ****************************************************************************//**
 487:Generated_Source\PSoC4/CyLib.c ****     *
 488:Generated_Source\PSoC4/CyLib.c ****     * Reports the IMO to USB lock enable state.
 489:Generated_Source\PSoC4/CyLib.c ****     *
 490:Generated_Source\PSoC4/CyLib.c ****     * This is applicable for PSoC 4200L family of devices only. For PSoC 4200L
 491:Generated_Source\PSoC4/CyLib.c ****     * devices, the IMO can lock to either WCO or USB, but not both.
 492:Generated_Source\PSoC4/CyLib.c ****     *
 493:Generated_Source\PSoC4/CyLib.c ****     * \return 1 if IMO to USB lock is enabled.
 494:Generated_Source\PSoC4/CyLib.c ****     * \return 0 if IMO to USB lock is disabled.
 495:Generated_Source\PSoC4/CyLib.c ****     *
 496:Generated_Source\PSoC4/CyLib.c ****     *******************************************************************************/
 497:Generated_Source\PSoC4/CyLib.c ****     uint32 CySysClkImoGetUsbLock(void)
 498:Generated_Source\PSoC4/CyLib.c ****     {
 499:Generated_Source\PSoC4/CyLib.c ****         return ((0u != (CY_SYS_CLK_USBDEVv2_CR1_REG & CY_SYS_CLK_USBDEVv2_CR1_ENABLE_LOCK)) ?
 500:Generated_Source\PSoC4/CyLib.c ****                 (uint32) 1u :
 501:Generated_Source\PSoC4/CyLib.c ****                 (uint32) 0u);
 502:Generated_Source\PSoC4/CyLib.c ****     }
 503:Generated_Source\PSoC4/CyLib.c **** #endif  /* (CY_IP_IMO_TRIMMABLE_BY_USB) */
 504:Generated_Source\PSoC4/CyLib.c **** 
 505:Generated_Source\PSoC4/CyLib.c **** 
 506:Generated_Source\PSoC4/CyLib.c **** 
 507:Generated_Source\PSoC4/CyLib.c **** /*******************************************************************************
 508:Generated_Source\PSoC4/CyLib.c **** * Function Name: CySysClkWriteHfclkDirect
 509:Generated_Source\PSoC4/CyLib.c **** ****************************************************************************//**
 510:Generated_Source\PSoC4/CyLib.c **** *
 511:Generated_Source\PSoC4/CyLib.c **** * Selects the direct source for the HFCLK.
 512:Generated_Source\PSoC4/CyLib.c **** *
 513:Generated_Source\PSoC4/CyLib.c **** * The new source must be running and stable before calling this function.
 514:Generated_Source\PSoC4/CyLib.c **** *
 515:Generated_Source\PSoC4/CyLib.c **** * PSoC 4000:
 516:Generated_Source\PSoC4/CyLib.c **** * The SYSCLK has a maximum speed of 16 MHz, so HFCLK and SYSCLK dividers should
 517:Generated_Source\PSoC4/CyLib.c **** * be selected in a way to not to exceed 16 MHz for the System clock.
 518:Generated_Source\PSoC4/CyLib.c **** *
 519:Generated_Source\PSoC4/CyLib.c **** * If the SYSCLK clock frequency increases during device operation, call
 520:Generated_Source\PSoC4/CyLib.c **** * CySysFlashSetWaitCycles() with the appropriate parameter to adjust the number
 521:Generated_Source\PSoC4/CyLib.c **** * of clock cycles the cache will wait before sampling data comes back from
 522:Generated_Source\PSoC4/CyLib.c **** * Flash. If the SYSCLK clock frequency decreases, you can call
 523:Generated_Source\PSoC4/CyLib.c **** * CySysFlashSetWaitCycles() to improve the CPU performance. See
 524:Generated_Source\PSoC4/CyLib.c **** * CySysFlashSetWaitCycles() description for more information.
 525:Generated_Source\PSoC4/CyLib.c **** *
 526:Generated_Source\PSoC4/CyLib.c **** * Do not select PLL as the source for HFCLK if PLL output frequency exceeds
 527:Generated_Source\PSoC4/CyLib.c **** * maximum permissible value for HFCLK.
 528:Generated_Source\PSoC4/CyLib.c **** *
 529:Generated_Source\PSoC4/CyLib.c **** * \param clkSelect One of the available HFCLK direct sources.
 530:Generated_Source\PSoC4/CyLib.c **** * CY_SYS_CLK_HFCLK_IMO     IMO.
 531:Generated_Source\PSoC4/CyLib.c **** * CY_SYS_CLK_HFCLK_EXTCLK  External clock pin.
 532:Generated_Source\PSoC4/CyLib.c **** * CY_SYS_CLK_HFCLK_ECO     External crystal oscillator. Applicable for
 533:Generated_Source\PSoC4/CyLib.c **** *                          PSoC 4100 BLE / PSoC 4200 BLE / PSoC 4200L /
 534:Generated_Source\PSoC4/CyLib.c **** *                          4100S / 4500 with ECO.
 535:Generated_Source\PSoC4/CyLib.c **** * CY_SYS_CLK_HFCLK_PLL0    PLL#0. Applicable for PSoC 4200L /
 536:Generated_Source\PSoC4/CyLib.c **** *                          4100S / 4500 with PLL.
 537:Generated_Source\PSoC4/CyLib.c **** * CY_SYS_CLK_HFCLK_PLL1    PLL#1. Applicable for PSoC 4200L.
 538:Generated_Source\PSoC4/CyLib.c **** *
 539:Generated_Source\PSoC4/CyLib.c **** *******************************************************************************/
 540:Generated_Source\PSoC4/CyLib.c **** void CySysClkWriteHfclkDirect(uint32 clkSelect)
 541:Generated_Source\PSoC4/CyLib.c **** {
ARM GAS  C:\Users\Jesus\AppData\Local\Temp\cc071y2F.s 			page 12


  87              		.loc 1 541 0
  88              		.cfi_startproc
  89              		@ args = 0, pretend = 0, frame = 0
  90              		@ frame_needed = 0, uses_anonymous_args = 0
  91              	.LVL0:
  92 0000 10B5     		push	{r4, lr}
  93              		.cfi_def_cfa_offset 8
  94              		.cfi_offset 4, -8
  95              		.cfi_offset 14, -4
  96 0002 0400     		movs	r4, r0
 542:Generated_Source\PSoC4/CyLib.c ****     uint8  interruptState;
 543:Generated_Source\PSoC4/CyLib.c ****     uint32 tmpReg;
 544:Generated_Source\PSoC4/CyLib.c ****     
 545:Generated_Source\PSoC4/CyLib.c ****     #if (CY_IP_SRSSLT && CY_IP_PLL)
 546:Generated_Source\PSoC4/CyLib.c ****         uint8 i = 0u;
 547:Generated_Source\PSoC4/CyLib.c ****     #endif /* (CY_IP_SRSSLT && CY_IP_PLL) */
 548:Generated_Source\PSoC4/CyLib.c **** 
 549:Generated_Source\PSoC4/CyLib.c ****     interruptState = CyEnterCriticalSection();
  97              		.loc 1 549 0
  98 0004 FFF7FEFF 		bl	CyEnterCriticalSection
  99              	.LVL1:
 550:Generated_Source\PSoC4/CyLib.c **** 
 551:Generated_Source\PSoC4/CyLib.c **** #if (CY_IP_SRSSLT && CY_IP_PLL)
 552:Generated_Source\PSoC4/CyLib.c ****     if ((CY_SYS_CLK_HFCLK_PLL0 == clkSelect) || (CY_SYS_CLK_HFCLK_ECO == clkSelect))
 553:Generated_Source\PSoC4/CyLib.c ****     {
 554:Generated_Source\PSoC4/CyLib.c ****         tmpReg = CY_SYS_CLK_SELECT_REG & ~CY_SYS_CLK_SELECT_DIRECT_SEL_MASK;
 555:Generated_Source\PSoC4/CyLib.c ****         tmpReg |= CY_SYS_CLK_HFCLK_IMO;
 556:Generated_Source\PSoC4/CyLib.c ****         CY_SYS_CLK_SELECT_REG = tmpReg;
 557:Generated_Source\PSoC4/CyLib.c ****         
 558:Generated_Source\PSoC4/CyLib.c ****         /* SRSSLT block does not have registers to select PLL. It is part of EXCO */ 
 559:Generated_Source\PSoC4/CyLib.c ****         tmpReg = CY_SYS_ECO_CLK_SELECT_REG & ~CY_SYS_ECO_CLK_SELECT_ECO_PLL_MASK;
 560:Generated_Source\PSoC4/CyLib.c ****         tmpReg |= ((clkSelect & CY_SYS_CLK_SELECT_HFCLK_SEL_PLL_MASK) >> CY_SYS_CLK_SELECT_HFCLK_PL
 561:Generated_Source\PSoC4/CyLib.c ****         CY_SYS_ECO_CLK_SELECT_REG = tmpReg;
 562:Generated_Source\PSoC4/CyLib.c ****         
 563:Generated_Source\PSoC4/CyLib.c ****         /* Generate clock sequence to change clock source in CY_SYS_ECO_CLK_SELECT_REG */
 564:Generated_Source\PSoC4/CyLib.c ****         CY_SYS_EXCO_PGM_CLK_REG |= CY_SYS_EXCO_PGM_CLK_ENABLE_MASK;
 565:Generated_Source\PSoC4/CyLib.c ****         
 566:Generated_Source\PSoC4/CyLib.c ****         for(i = 0u; i < CY_SYS_EXCO_PGM_CLK_SEQ_GENERATOR; i++)
 567:Generated_Source\PSoC4/CyLib.c ****         {
 568:Generated_Source\PSoC4/CyLib.c ****             CY_SYS_EXCO_PGM_CLK_REG |= CY_SYS_EXCO_PGM_CLK_CLK_ECO_MASK;
 569:Generated_Source\PSoC4/CyLib.c ****             CY_SYS_EXCO_PGM_CLK_REG &= ~CY_SYS_EXCO_PGM_CLK_CLK_ECO_MASK;
 570:Generated_Source\PSoC4/CyLib.c ****         }
 571:Generated_Source\PSoC4/CyLib.c ****         
 572:Generated_Source\PSoC4/CyLib.c ****         CY_SYS_EXCO_PGM_CLK_REG &= ~CY_SYS_EXCO_PGM_CLK_ENABLE_MASK;    
 573:Generated_Source\PSoC4/CyLib.c ****     }
 574:Generated_Source\PSoC4/CyLib.c **** #endif /* (CY_IP_SRSSLT && CY_IP_PLL) */
 575:Generated_Source\PSoC4/CyLib.c **** 
 576:Generated_Source\PSoC4/CyLib.c ****     tmpReg = CY_SYS_CLK_SELECT_REG & ~(CY_SYS_CLK_SELECT_DIRECT_SEL_MASK |
 100              		.loc 1 576 0
 101 0008 044A     		ldr	r2, .L8
 102 000a 1368     		ldr	r3, [r2]
 103 000c 0721     		movs	r1, #7
 104 000e 8B43     		bics	r3, r1
 105              	.LVL2:
 577:Generated_Source\PSoC4/CyLib.c ****                                        CY_SYS_CLK_SELECT_HFCLK_SEL_MASK);
 578:Generated_Source\PSoC4/CyLib.c **** 
 579:Generated_Source\PSoC4/CyLib.c **** #if (CY_IP_SRSSV2 && CY_IP_PLL)
ARM GAS  C:\Users\Jesus\AppData\Local\Temp\cc071y2F.s 			page 13


 580:Generated_Source\PSoC4/CyLib.c ****     if ((CY_SYS_CLK_HFCLK_PLL0 == clkSelect) || (CY_SYS_CLK_HFCLK_PLL1 == clkSelect))
 581:Generated_Source\PSoC4/CyLib.c ****     {
 582:Generated_Source\PSoC4/CyLib.c ****         tmpReg |= (clkSelect & CY_SYS_CLK_SELECT_HFCLK_SEL_MASK);
 583:Generated_Source\PSoC4/CyLib.c ****     }
 584:Generated_Source\PSoC4/CyLib.c ****     else
 585:Generated_Source\PSoC4/CyLib.c **** #endif /* (CY_IP_SRSSV2 && CY_IP_PLL) */
 586:Generated_Source\PSoC4/CyLib.c ****     {
 587:Generated_Source\PSoC4/CyLib.c ****         tmpReg |= (clkSelect & CY_SYS_CLK_SELECT_DIRECT_SEL_MASK);
 106              		.loc 1 587 0
 107 0010 0C40     		ands	r4, r1
 108              	.LVL3:
 109 0012 1C43     		orrs	r4, r3
 110              	.LVL4:
 588:Generated_Source\PSoC4/CyLib.c ****     }   
 589:Generated_Source\PSoC4/CyLib.c ****     
 590:Generated_Source\PSoC4/CyLib.c ****     CY_SYS_CLK_SELECT_REG = tmpReg;
 111              		.loc 1 590 0
 112 0014 1460     		str	r4, [r2]
 591:Generated_Source\PSoC4/CyLib.c ****     
 592:Generated_Source\PSoC4/CyLib.c ****     CyExitCriticalSection(interruptState);
 113              		.loc 1 592 0
 114 0016 FFF7FEFF 		bl	CyExitCriticalSection
 115              	.LVL5:
 593:Generated_Source\PSoC4/CyLib.c **** }
 116              		.loc 1 593 0
 117              		@ sp needed
 118              	.LVL6:
 119 001a 10BD     		pop	{r4, pc}
 120              	.L9:
 121              		.align	2
 122              	.L8:
 123 001c 00010B40 		.word	1074462976
 124              		.cfi_endproc
 125              	.LFE2:
 126              		.size	CySysClkWriteHfclkDirect, .-CySysClkWriteHfclkDirect
 127              		.section	.text.CySysEnablePumpClock,"ax",%progbits
 128              		.align	2
 129              		.global	CySysEnablePumpClock
 130              		.code	16
 131              		.thumb_func
 132              		.type	CySysEnablePumpClock, %function
 133              	CySysEnablePumpClock:
 134              	.LFB3:
 594:Generated_Source\PSoC4/CyLib.c **** 
 595:Generated_Source\PSoC4/CyLib.c **** 
 596:Generated_Source\PSoC4/CyLib.c **** /*******************************************************************************
 597:Generated_Source\PSoC4/CyLib.c **** * Function Name: CySysEnablePumpClock
 598:Generated_Source\PSoC4/CyLib.c **** ****************************************************************************//**
 599:Generated_Source\PSoC4/CyLib.c **** *
 600:Generated_Source\PSoC4/CyLib.c **** * Enables / disables the pump clock.
 601:Generated_Source\PSoC4/CyLib.c **** *
 602:Generated_Source\PSoC4/CyLib.c **** * \param enable  
 603:Generated_Source\PSoC4/CyLib.c **** * CY_SYS_CLK_PUMP_DISABLE - Disables the pump clock
 604:Generated_Source\PSoC4/CyLib.c **** * CY_SYS_CLK_PUMP_ENABLE - Enables and restores the operating source of 
 605:Generated_Source\PSoC4/CyLib.c **** * the pump clock.
 606:Generated_Source\PSoC4/CyLib.c **** *
 607:Generated_Source\PSoC4/CyLib.c **** * \sideeffect
ARM GAS  C:\Users\Jesus\AppData\Local\Temp\cc071y2F.s 			page 14


 608:Generated_Source\PSoC4/CyLib.c **** *  Enabling/disabling the pump clock does not guarantee glitch free operation 
 609:Generated_Source\PSoC4/CyLib.c **** *  when changing the IMO parameters or clock divider settings.
 610:Generated_Source\PSoC4/CyLib.c **** *
 611:Generated_Source\PSoC4/CyLib.c **** *******************************************************************************/
 612:Generated_Source\PSoC4/CyLib.c **** void CySysEnablePumpClock(uint32 enable)
 613:Generated_Source\PSoC4/CyLib.c **** {
 135              		.loc 1 613 0
 136              		.cfi_startproc
 137              		@ args = 0, pretend = 0, frame = 0
 138              		@ frame_needed = 0, uses_anonymous_args = 0
 139              		@ link register save eliminated.
 140              	.LVL7:
 614:Generated_Source\PSoC4/CyLib.c ****     #if(CY_IP_SRSSV2)
 615:Generated_Source\PSoC4/CyLib.c ****         if (0u != (CY_SYS_CLK_PUMP_ENABLE & enable))
 141              		.loc 1 615 0
 142 0000 C307     		lsls	r3, r0, #31
 143 0002 07D5     		bpl	.L11
 616:Generated_Source\PSoC4/CyLib.c ****         {
 617:Generated_Source\PSoC4/CyLib.c ****             CY_SYS_CLK_IMO_CONFIG_REG |= (CySysClkPumpConfig << CY_SYS_CLK_IMO_CONFIG_PUMP_SEL_SHIF
 144              		.loc 1 617 0
 145 0004 094A     		ldr	r2, .L13
 146 0006 1168     		ldr	r1, [r2]
 147 0008 094B     		ldr	r3, .L13+4
 148 000a 1B68     		ldr	r3, [r3]
 149 000c 5B06     		lsls	r3, r3, #25
 150 000e 0B43     		orrs	r3, r1
 151 0010 1360     		str	r3, [r2]
 152 0012 0AE0     		b	.L10
 153              	.L11:
 618:Generated_Source\PSoC4/CyLib.c ****         }
 619:Generated_Source\PSoC4/CyLib.c ****         else
 620:Generated_Source\PSoC4/CyLib.c ****         {
 621:Generated_Source\PSoC4/CyLib.c ****             CySysClkPumpConfig = (CY_SYS_CLK_IMO_CONFIG_REG >> CY_SYS_CLK_IMO_CONFIG_PUMP_SEL_SHIFT
 154              		.loc 1 621 0
 155 0014 054A     		ldr	r2, .L13
 156 0016 1368     		ldr	r3, [r2]
 157 0018 5B0E     		lsrs	r3, r3, #25
 158 001a 0721     		movs	r1, #7
 159 001c 0B40     		ands	r3, r1
 160 001e 0449     		ldr	r1, .L13+4
 161 0020 0B60     		str	r3, [r1]
 622:Generated_Source\PSoC4/CyLib.c ****                                   CY_SYS_CLK_IMO_CONFIG_PUMP_SEL_MASK;
 623:Generated_Source\PSoC4/CyLib.c ****             CY_SYS_CLK_IMO_CONFIG_REG &= ~(CY_SYS_CLK_IMO_CONFIG_PUMP_SEL_MASK << CY_SYS_CLK_IMO_CO
 162              		.loc 1 623 0
 163 0022 1168     		ldr	r1, [r2]
 164 0024 034B     		ldr	r3, .L13+8
 165 0026 0B40     		ands	r3, r1
 166 0028 1360     		str	r3, [r2]
 167              	.L10:
 624:Generated_Source\PSoC4/CyLib.c ****         }
 625:Generated_Source\PSoC4/CyLib.c ****     #else /* CY_IP_SRSSLT */
 626:Generated_Source\PSoC4/CyLib.c ****         if (0u != (CY_SYS_CLK_PUMP_ENABLE & enable))
 627:Generated_Source\PSoC4/CyLib.c ****         {
 628:Generated_Source\PSoC4/CyLib.c ****             CY_SYS_CLK_SELECT_REG |= (CySysClkPumpConfig << CY_SYS_CLK_SELECT_PUMP_SEL_SHIFT);
 629:Generated_Source\PSoC4/CyLib.c ****         }
 630:Generated_Source\PSoC4/CyLib.c ****         else
 631:Generated_Source\PSoC4/CyLib.c ****         {
ARM GAS  C:\Users\Jesus\AppData\Local\Temp\cc071y2F.s 			page 15


 632:Generated_Source\PSoC4/CyLib.c ****             CySysClkPumpConfig = (CY_SYS_CLK_SELECT_REG >> CY_SYS_CLK_SELECT_PUMP_SEL_SHIFT) & 
 633:Generated_Source\PSoC4/CyLib.c ****                                   CY_SYS_CLK_SELECT_PUMP_SEL_MASK;
 634:Generated_Source\PSoC4/CyLib.c ****             CY_SYS_CLK_SELECT_REG &= ~(CY_SYS_CLK_SELECT_PUMP_SEL_MASK << CY_SYS_CLK_SELECT_PUMP_SE
 635:Generated_Source\PSoC4/CyLib.c ****         }
 636:Generated_Source\PSoC4/CyLib.c ****     #endif  /* (CY_IP_SRSSV2) */
 637:Generated_Source\PSoC4/CyLib.c **** }
 168              		.loc 1 637 0
 169              		@ sp needed
 170 002a 7047     		bx	lr
 171              	.L14:
 172              		.align	2
 173              	.L13:
 174 002c 08010B40 		.word	1074462984
 175 0030 00000000 		.word	.LANCHOR0
 176 0034 FFFFFFF1 		.word	-234881025
 177              		.cfi_endproc
 178              	.LFE3:
 179              		.size	CySysEnablePumpClock, .-CySysEnablePumpClock
 180              		.section	.text.CySysClkGetSysclkSource,"ax",%progbits
 181              		.align	2
 182              		.global	CySysClkGetSysclkSource
 183              		.code	16
 184              		.thumb_func
 185              		.type	CySysClkGetSysclkSource, %function
 186              	CySysClkGetSysclkSource:
 187              	.LFB4:
 638:Generated_Source\PSoC4/CyLib.c **** 
 639:Generated_Source\PSoC4/CyLib.c **** 
 640:Generated_Source\PSoC4/CyLib.c **** /*******************************************************************************
 641:Generated_Source\PSoC4/CyLib.c **** * Function Name: CySysClkGetSysclkSource
 642:Generated_Source\PSoC4/CyLib.c **** ****************************************************************************//**
 643:Generated_Source\PSoC4/CyLib.c **** *
 644:Generated_Source\PSoC4/CyLib.c **** * Returns the source of the System clock.
 645:Generated_Source\PSoC4/CyLib.c **** *
 646:Generated_Source\PSoC4/CyLib.c **** * \return The same as \ref CySysClkWriteHfclkDirect() function parameters.
 647:Generated_Source\PSoC4/CyLib.c **** *
 648:Generated_Source\PSoC4/CyLib.c **** *******************************************************************************/
 649:Generated_Source\PSoC4/CyLib.c **** uint32 CySysClkGetSysclkSource(void)
 650:Generated_Source\PSoC4/CyLib.c **** {
 188              		.loc 1 650 0
 189              		.cfi_startproc
 190              		@ args = 0, pretend = 0, frame = 0
 191              		@ frame_needed = 0, uses_anonymous_args = 0
 192 0000 10B5     		push	{r4, lr}
 193              		.cfi_def_cfa_offset 8
 194              		.cfi_offset 4, -8
 195              		.cfi_offset 14, -4
 651:Generated_Source\PSoC4/CyLib.c ****     uint8  interruptState;
 652:Generated_Source\PSoC4/CyLib.c ****     uint32 sysclkSource;
 653:Generated_Source\PSoC4/CyLib.c **** 
 654:Generated_Source\PSoC4/CyLib.c ****     interruptState = CyEnterCriticalSection();
 196              		.loc 1 654 0
 197 0002 FFF7FEFF 		bl	CyEnterCriticalSection
 198              	.LVL8:
 655:Generated_Source\PSoC4/CyLib.c **** 
 656:Generated_Source\PSoC4/CyLib.c **** #if (CY_IP_SRSSV2 && CY_IP_PLL)
 657:Generated_Source\PSoC4/CyLib.c ****     if ((CY_SYS_CLK_SELECT_REG & CY_SYS_CLK_SELECT_HFCLK_SEL_MASK) != 0u)
ARM GAS  C:\Users\Jesus\AppData\Local\Temp\cc071y2F.s 			page 16


 658:Generated_Source\PSoC4/CyLib.c ****     {
 659:Generated_Source\PSoC4/CyLib.c ****         sysclkSource = (CY_SYS_CLK_SELECT_REG & CY_SYS_CLK_SELECT_HFCLK_SEL_MASK);
 660:Generated_Source\PSoC4/CyLib.c ****     }
 661:Generated_Source\PSoC4/CyLib.c ****     else
 662:Generated_Source\PSoC4/CyLib.c **** #endif /* (CY_IP_SRSSV2 && CY_IP_PLL) */
 663:Generated_Source\PSoC4/CyLib.c ****     {
 664:Generated_Source\PSoC4/CyLib.c ****         sysclkSource = (CY_SYS_CLK_SELECT_REG & CY_SYS_CLK_SELECT_DIRECT_SEL_MASK);
 199              		.loc 1 664 0
 200 0006 044B     		ldr	r3, .L16
 201 0008 1B68     		ldr	r3, [r3]
 202 000a 0724     		movs	r4, #7
 203 000c 1C40     		ands	r4, r3
 204              	.LVL9:
 665:Generated_Source\PSoC4/CyLib.c **** 
 666:Generated_Source\PSoC4/CyLib.c ****     #if (CY_IP_SRSSLT && CY_IP_PLL)
 667:Generated_Source\PSoC4/CyLib.c ****         sysclkSource |= (((uint32)(CY_SYS_ECO_CLK_SELECT_REG & CY_SYS_ECO_CLK_SELECT_ECO_PLL_MASK))
 668:Generated_Source\PSoC4/CyLib.c ****                          CY_SYS_CLK_SELECT_HFCLK_PLL_SHIFT);
 669:Generated_Source\PSoC4/CyLib.c ****     #endif /* (CY_IP_SRSSLT && CY_IP_PLL) */
 670:Generated_Source\PSoC4/CyLib.c ****         
 671:Generated_Source\PSoC4/CyLib.c ****     }
 672:Generated_Source\PSoC4/CyLib.c **** 
 673:Generated_Source\PSoC4/CyLib.c ****     CyExitCriticalSection(interruptState);
 205              		.loc 1 673 0
 206 000e FFF7FEFF 		bl	CyExitCriticalSection
 207              	.LVL10:
 674:Generated_Source\PSoC4/CyLib.c **** 
 675:Generated_Source\PSoC4/CyLib.c ****     return (sysclkSource);
 676:Generated_Source\PSoC4/CyLib.c **** }
 208              		.loc 1 676 0
 209 0012 2000     		movs	r0, r4
 210              		@ sp needed
 211              	.LVL11:
 212 0014 10BD     		pop	{r4, pc}
 213              	.L17:
 214 0016 C046     		.align	2
 215              	.L16:
 216 0018 00010B40 		.word	1074462976
 217              		.cfi_endproc
 218              	.LFE4:
 219              		.size	CySysClkGetSysclkSource, .-CySysClkGetSysclkSource
 220              		.section	.text.CySysClkWriteSysclkDiv,"ax",%progbits
 221              		.align	2
 222              		.global	CySysClkWriteSysclkDiv
 223              		.code	16
 224              		.thumb_func
 225              		.type	CySysClkWriteSysclkDiv, %function
 226              	CySysClkWriteSysclkDiv:
 227              	.LFB5:
 677:Generated_Source\PSoC4/CyLib.c **** 
 678:Generated_Source\PSoC4/CyLib.c **** 
 679:Generated_Source\PSoC4/CyLib.c **** /*******************************************************************************
 680:Generated_Source\PSoC4/CyLib.c **** * Function Name: CySysClkWriteSysclkDiv
 681:Generated_Source\PSoC4/CyLib.c **** ****************************************************************************//**
 682:Generated_Source\PSoC4/CyLib.c **** *
 683:Generated_Source\PSoC4/CyLib.c **** * Selects the prescaler divide amount for SYSCLK from HFCLK.
 684:Generated_Source\PSoC4/CyLib.c **** *
 685:Generated_Source\PSoC4/CyLib.c **** * PSoC 4000: The SYSCLK has the speed of 16 MHz, so HFCLK and SYSCLK dividers
ARM GAS  C:\Users\Jesus\AppData\Local\Temp\cc071y2F.s 			page 17


 686:Generated_Source\PSoC4/CyLib.c **** * should be selected in a way, not to exceed 16 MHz for SYSCLK.
 687:Generated_Source\PSoC4/CyLib.c **** *
 688:Generated_Source\PSoC4/CyLib.c **** * PSoC 4100 \ PSoC 4100 BLE \ PSoC 4100M: The SYSCLK has the speed of 24 MHz,
 689:Generated_Source\PSoC4/CyLib.c **** * so HFCLK and SYSCLK dividers should be selected in a way, not to exceed 24 MHz
 690:Generated_Source\PSoC4/CyLib.c **** * for SYSCLK.
 691:Generated_Source\PSoC4/CyLib.c **** *
 692:Generated_Source\PSoC4/CyLib.c **** * If the SYSCLK clock frequency increases during the device operation, call
 693:Generated_Source\PSoC4/CyLib.c **** * \ref CySysFlashSetWaitCycles() with the appropriate parameter to adjust the
 694:Generated_Source\PSoC4/CyLib.c **** * number of clock cycles the cache will wait before sampling data comes back
 695:Generated_Source\PSoC4/CyLib.c **** * from Flash. If the SYSCLK clock frequency decreases, you can call
 696:Generated_Source\PSoC4/CyLib.c **** * \ref CySysFlashSetWaitCycles() to improve the CPU performance. See
 697:Generated_Source\PSoC4/CyLib.c **** * \ref CySysFlashSetWaitCycles() description for more information.
 698:Generated_Source\PSoC4/CyLib.c **** *
 699:Generated_Source\PSoC4/CyLib.c **** * \param divider Power of 2 prescaler selection
 700:Generated_Source\PSoC4/CyLib.c **** *  CY_SYS_CLK_SYSCLK_DIV1        SYSCLK = HFCLK / 1
 701:Generated_Source\PSoC4/CyLib.c **** *  CY_SYS_CLK_SYSCLK_DIV2        SYSCLK = HFCLK / 2
 702:Generated_Source\PSoC4/CyLib.c **** *  CY_SYS_CLK_SYSCLK_DIV4        SYSCLK = HFCLK / 4
 703:Generated_Source\PSoC4/CyLib.c **** *  CY_SYS_CLK_SYSCLK_DIV8        SYSCLK = HFCLK / 8
 704:Generated_Source\PSoC4/CyLib.c **** *  CY_SYS_CLK_SYSCLK_DIV16       SYSCLK = HFCLK / 16  (N/A for 4000 Family)
 705:Generated_Source\PSoC4/CyLib.c **** *  CY_SYS_CLK_SYSCLK_DIV32       SYSCLK = HFCLK / 32  (N/A for 4000 Family)
 706:Generated_Source\PSoC4/CyLib.c **** *  CY_SYS_CLK_SYSCLK_DIV64       SYSCLK = HFCLK / 64  (N/A for 4000 Family)
 707:Generated_Source\PSoC4/CyLib.c **** *  CY_SYS_CLK_SYSCLK_DIV128      SYSCLK = HFCLK / 128 (N/A for 4000 Family)
 708:Generated_Source\PSoC4/CyLib.c **** *
 709:Generated_Source\PSoC4/CyLib.c **** *******************************************************************************/
 710:Generated_Source\PSoC4/CyLib.c **** void CySysClkWriteSysclkDiv(uint32 divider)
 711:Generated_Source\PSoC4/CyLib.c **** {
 228              		.loc 1 711 0
 229              		.cfi_startproc
 230              		@ args = 0, pretend = 0, frame = 0
 231              		@ frame_needed = 0, uses_anonymous_args = 0
 232              	.LVL12:
 233 0000 10B5     		push	{r4, lr}
 234              		.cfi_def_cfa_offset 8
 235              		.cfi_offset 4, -8
 236              		.cfi_offset 14, -4
 237 0002 0400     		movs	r4, r0
 712:Generated_Source\PSoC4/CyLib.c ****     uint8  interruptState;
 713:Generated_Source\PSoC4/CyLib.c **** 
 714:Generated_Source\PSoC4/CyLib.c ****     interruptState = CyEnterCriticalSection();
 238              		.loc 1 714 0
 239 0004 FFF7FEFF 		bl	CyEnterCriticalSection
 240              	.LVL13:
 715:Generated_Source\PSoC4/CyLib.c **** 
 716:Generated_Source\PSoC4/CyLib.c ****     CY_SYS_CLK_SELECT_REG = ((uint32)(((uint32)divider & CY_SYS_CLK_SELECT_SYSCLK_DIV_MASK) <<
 241              		.loc 1 716 0
 242 0008 E304     		lsls	r3, r4, #19
 243 000a E022     		movs	r2, #224
 244 000c 9203     		lsls	r2, r2, #14
 245 000e 1340     		ands	r3, r2
 246 0010 1900     		movs	r1, r3
 717:Generated_Source\PSoC4/CyLib.c ****                                     CY_SYS_CLK_SELECT_SYSCLK_DIV_SHIFT)) |
 718:Generated_Source\PSoC4/CyLib.c ****                             (CY_SYS_CLK_SELECT_REG & ((uint32)(~(uint32)(CY_SYS_CLK_SELECT_SYSCLK_D
 247              		.loc 1 718 0
 248 0012 054C     		ldr	r4, .L19
 249              	.LVL14:
 250 0014 2368     		ldr	r3, [r4]
 251 0016 054A     		ldr	r2, .L19+4
ARM GAS  C:\Users\Jesus\AppData\Local\Temp\cc071y2F.s 			page 18


 252 0018 1A40     		ands	r2, r3
 717:Generated_Source\PSoC4/CyLib.c ****                                     CY_SYS_CLK_SELECT_SYSCLK_DIV_SHIFT)) |
 253              		.loc 1 717 0
 254 001a 0B00     		movs	r3, r1
 255 001c 1343     		orrs	r3, r2
 716:Generated_Source\PSoC4/CyLib.c ****                                     CY_SYS_CLK_SELECT_SYSCLK_DIV_SHIFT)) |
 256              		.loc 1 716 0
 257 001e 2360     		str	r3, [r4]
 719:Generated_Source\PSoC4/CyLib.c ****                                     CY_SYS_CLK_SELECT_SYSCLK_DIV_SHIFT))));
 720:Generated_Source\PSoC4/CyLib.c **** 
 721:Generated_Source\PSoC4/CyLib.c ****     CyExitCriticalSection(interruptState);
 258              		.loc 1 721 0
 259 0020 FFF7FEFF 		bl	CyExitCriticalSection
 260              	.LVL15:
 722:Generated_Source\PSoC4/CyLib.c **** }
 261              		.loc 1 722 0
 262              		@ sp needed
 263 0024 10BD     		pop	{r4, pc}
 264              	.L20:
 265 0026 C046     		.align	2
 266              	.L19:
 267 0028 00010B40 		.word	1074462976
 268 002c FFFFC7FF 		.word	-3670017
 269              		.cfi_endproc
 270              	.LFE5:
 271              		.size	CySysClkWriteSysclkDiv, .-CySysClkWriteSysclkDiv
 272              		.section	.text.CySysLvdDisable,"ax",%progbits
 273              		.align	2
 274              		.global	CySysLvdDisable
 275              		.code	16
 276              		.thumb_func
 277              		.type	CySysLvdDisable, %function
 278              	CySysLvdDisable:
 279              	.LFB8:
 723:Generated_Source\PSoC4/CyLib.c **** 
 724:Generated_Source\PSoC4/CyLib.c **** 
 725:Generated_Source\PSoC4/CyLib.c **** /*******************************************************************************
 726:Generated_Source\PSoC4/CyLib.c **** * Function Name: CySysClkWriteImoFreq
 727:Generated_Source\PSoC4/CyLib.c **** ****************************************************************************//**
 728:Generated_Source\PSoC4/CyLib.c **** *
 729:Generated_Source\PSoC4/CyLib.c **** * Sets the frequency of the IMO.
 730:Generated_Source\PSoC4/CyLib.c **** *
 731:Generated_Source\PSoC4/CyLib.c **** * PSoC 4000: The SYSCLK has the speed of 16 MHz, so HFCLK and SYSCLK dividers
 732:Generated_Source\PSoC4/CyLib.c **** * should be selected in a way, not to exceed 16 MHz for SYSCLK.
 733:Generated_Source\PSoC4/CyLib.c **** *
 734:Generated_Source\PSoC4/CyLib.c **** * PSoC 4100 \ PSoC 4100 BLE \ PSoC 4100M: The SYSCLK has the speed of 24 MHz,
 735:Generated_Source\PSoC4/CyLib.c **** * so HFCLK and SYSCLK dividers should be selected in a way, not to exceed 24 MHz
 736:Generated_Source\PSoC4/CyLib.c **** * for SYSCLK.
 737:Generated_Source\PSoC4/CyLib.c **** *
 738:Generated_Source\PSoC4/CyLib.c **** * For PSoC 4200M and PSoC 4200L device families, if WCO lock feature is enabled
 739:Generated_Source\PSoC4/CyLib.c **** * then this API will disable the lock, write the new IMO frequency and then
 740:Generated_Source\PSoC4/CyLib.c **** * re-enable the lock.
 741:Generated_Source\PSoC4/CyLib.c **** *
 742:Generated_Source\PSoC4/CyLib.c **** * For PSoC 4200L device families, this function enables the USB lock when 24 or
 743:Generated_Source\PSoC4/CyLib.c **** * 48 MHz passed as a parameter if the USB lock option is enabled in Design Wide
 744:Generated_Source\PSoC4/CyLib.c **** * Resources tab or CySysClkImoEnableUsbLock() was called before. Note the USB
 745:Generated_Source\PSoC4/CyLib.c **** * lock is disabled during IMO frequency change.
ARM GAS  C:\Users\Jesus\AppData\Local\Temp\cc071y2F.s 			page 19


 746:Generated_Source\PSoC4/CyLib.c **** *
 747:Generated_Source\PSoC4/CyLib.c **** * The CPU is halted if new frequency is invalid and project is compiled
 748:Generated_Source\PSoC4/CyLib.c **** * in debug mode.
 749:Generated_Source\PSoC4/CyLib.c **** *
 750:Generated_Source\PSoC4/CyLib.c **** * If the SYSCLK clock frequency increases during the device operation, call
 751:Generated_Source\PSoC4/CyLib.c **** * \ref CySysFlashSetWaitCycles() with the appropriate parameter to adjust the
 752:Generated_Source\PSoC4/CyLib.c **** * number of clock cycles the cache will wait before sampling data comes back
 753:Generated_Source\PSoC4/CyLib.c **** * from Flash. If the SYSCLK clock frequency decreases, you can call
 754:Generated_Source\PSoC4/CyLib.c **** * \ref CySysFlashSetWaitCycles() to improve the CPU performance. See
 755:Generated_Source\PSoC4/CyLib.c **** * \ref CySysFlashSetWaitCycles() description for more information.
 756:Generated_Source\PSoC4/CyLib.c **** *
 757:Generated_Source\PSoC4/CyLib.c **** * PSoC 4000: The System Clock (SYSCLK) has maximum speed of 16 MHz, so HFCLK
 758:Generated_Source\PSoC4/CyLib.c **** * and SYSCLK dividers should be selected in a way, to not to exceed 16 MHz for
 759:Generated_Source\PSoC4/CyLib.c **** * the System clock.
 760:Generated_Source\PSoC4/CyLib.c **** *
 761:Generated_Source\PSoC4/CyLib.c **** * \param freq All PSoC 4 families excluding the following: Valid range [3-48]
 762:Generated_Source\PSoC4/CyLib.c **** * with step size equals 1. PSoC 4000: Valid values are 24, 32, and 48.
 763:Generated_Source\PSoC4/CyLib.c **** * PSoC 4000S / PSoC 4100S / PSoC Analog Coprocessor: Valid range [24-48] with 
 764:Generated_Source\PSoC4/CyLib.c **** * step size equals 4.
 765:Generated_Source\PSoC4/CyLib.c **** *
 766:Generated_Source\PSoC4/CyLib.c **** *******************************************************************************/
 767:Generated_Source\PSoC4/CyLib.c **** #if(CY_IP_SRSSV2)
 768:Generated_Source\PSoC4/CyLib.c ****     void CySysClkWriteImoFreq(uint32 freq)
 769:Generated_Source\PSoC4/CyLib.c ****     {
 770:Generated_Source\PSoC4/CyLib.c ****         #if (CY_IP_FMLT)
 771:Generated_Source\PSoC4/CyLib.c ****             volatile uint32   parameters[2u];
 772:Generated_Source\PSoC4/CyLib.c ****             volatile uint32   regValues[4u];
 773:Generated_Source\PSoC4/CyLib.c ****         #else
 774:Generated_Source\PSoC4/CyLib.c ****             uint8  bgTrim4;
 775:Generated_Source\PSoC4/CyLib.c ****             uint8  bgTrim5;
 776:Generated_Source\PSoC4/CyLib.c ****             uint8  newImoTrim2Value;
 777:Generated_Source\PSoC4/CyLib.c ****             uint8  currentImoTrim2Value;
 778:Generated_Source\PSoC4/CyLib.c ****         #endif /* (CY_IP_FM) */
 779:Generated_Source\PSoC4/CyLib.c **** 
 780:Generated_Source\PSoC4/CyLib.c ****         #if (CY_IP_IMO_TRIMMABLE_BY_WCO)
 781:Generated_Source\PSoC4/CyLib.c ****             uint32 wcoLock = 0u;
 782:Generated_Source\PSoC4/CyLib.c ****         #endif  /* (CY_IP_IMO_TRIMMABLE_BY_WCO) */
 783:Generated_Source\PSoC4/CyLib.c **** 
 784:Generated_Source\PSoC4/CyLib.c ****         #if (CY_IP_IMO_TRIMMABLE_BY_USB)
 785:Generated_Source\PSoC4/CyLib.c ****             uint32 usbLock = 0u;
 786:Generated_Source\PSoC4/CyLib.c ****         #endif  /* (CY_IP_IMO_TRIMMABLE_BY_USB) */
 787:Generated_Source\PSoC4/CyLib.c **** 
 788:Generated_Source\PSoC4/CyLib.c ****         uint8  interruptState;
 789:Generated_Source\PSoC4/CyLib.c **** 
 790:Generated_Source\PSoC4/CyLib.c **** 
 791:Generated_Source\PSoC4/CyLib.c ****         interruptState = CyEnterCriticalSection();
 792:Generated_Source\PSoC4/CyLib.c **** 
 793:Generated_Source\PSoC4/CyLib.c ****         #if (CY_IP_IMO_TRIMMABLE_BY_WCO)
 794:Generated_Source\PSoC4/CyLib.c ****             if(0u != CySysClkImoGetWcoLock())
 795:Generated_Source\PSoC4/CyLib.c ****             {
 796:Generated_Source\PSoC4/CyLib.c ****                 wcoLock = 1u;
 797:Generated_Source\PSoC4/CyLib.c ****                 CySysClkImoDisableWcoLock();
 798:Generated_Source\PSoC4/CyLib.c ****             }
 799:Generated_Source\PSoC4/CyLib.c ****         #endif  /* (CY_IP_IMO_TRIMMABLE_BY_WCO) */
 800:Generated_Source\PSoC4/CyLib.c **** 
 801:Generated_Source\PSoC4/CyLib.c **** 
 802:Generated_Source\PSoC4/CyLib.c ****         #if (CY_IP_IMO_TRIMMABLE_BY_USB)
ARM GAS  C:\Users\Jesus\AppData\Local\Temp\cc071y2F.s 			page 20


 803:Generated_Source\PSoC4/CyLib.c **** 
 804:Generated_Source\PSoC4/CyLib.c ****             #if (CYDEV_IMO_TRIMMED_BY_USB == 0u)
 805:Generated_Source\PSoC4/CyLib.c ****                 if(0u != CySysClkImoGetUsbLock())
 806:Generated_Source\PSoC4/CyLib.c ****                 {
 807:Generated_Source\PSoC4/CyLib.c ****             #endif  /* (CYDEV_IMO_TRIMMED_BY_USB == 0u) */
 808:Generated_Source\PSoC4/CyLib.c **** 
 809:Generated_Source\PSoC4/CyLib.c ****                 if ((24u == freq) || (48u == freq))
 810:Generated_Source\PSoC4/CyLib.c ****                 {
 811:Generated_Source\PSoC4/CyLib.c ****                     usbLock = 1u;
 812:Generated_Source\PSoC4/CyLib.c ****                     CySysClkImoDisableUsbLock();
 813:Generated_Source\PSoC4/CyLib.c ****                 }
 814:Generated_Source\PSoC4/CyLib.c **** 
 815:Generated_Source\PSoC4/CyLib.c ****             #if (CYDEV_IMO_TRIMMED_BY_USB == 0u)
 816:Generated_Source\PSoC4/CyLib.c ****                 }
 817:Generated_Source\PSoC4/CyLib.c ****             #endif  /* (CYDEV_IMO_TRIMMED_BY_USB == 0u) */
 818:Generated_Source\PSoC4/CyLib.c **** 
 819:Generated_Source\PSoC4/CyLib.c ****         #endif  /* (CYDEV_IMO_TRIMMED_BY_USB == 0u) */
 820:Generated_Source\PSoC4/CyLib.c **** 
 821:Generated_Source\PSoC4/CyLib.c **** 
 822:Generated_Source\PSoC4/CyLib.c ****         #if (CY_IP_FMLT)
 823:Generated_Source\PSoC4/CyLib.c **** 
 824:Generated_Source\PSoC4/CyLib.c ****             /* FM-Lite Clock Restore */
 825:Generated_Source\PSoC4/CyLib.c ****             regValues[0u] = CY_SYS_CLK_IMO_CONFIG_REG;
 826:Generated_Source\PSoC4/CyLib.c ****             regValues[1u] = CY_SYS_CLK_SELECT_REG;
 827:Generated_Source\PSoC4/CyLib.c ****             regValues[2u] = cyImoFreqMhz2Reg[freq - CY_SYS_CLK_IMO_FREQ_TABLE_OFFSET];
 828:Generated_Source\PSoC4/CyLib.c ****             regValues[3u] = CY_FLASH_CTL_REG;
 829:Generated_Source\PSoC4/CyLib.c **** 
 830:Generated_Source\PSoC4/CyLib.c ****             parameters[0u] =
 831:Generated_Source\PSoC4/CyLib.c ****                 (uint32) ((CY_FLASH_KEY_TWO(CY_FLASH_API_OPCODE_CLK_RESTORE) <<  CY_FLASH_PARAM_KEY
 832:Generated_Source\PSoC4/CyLib.c ****                             CY_FLASH_KEY_ONE);
 833:Generated_Source\PSoC4/CyLib.c ****             parameters[1u] = (uint32) &regValues[0u];
 834:Generated_Source\PSoC4/CyLib.c **** 
 835:Generated_Source\PSoC4/CyLib.c ****             CY_FLASH_CPUSS_SYSARG_REG = (uint32) &parameters[0u];
 836:Generated_Source\PSoC4/CyLib.c ****             CY_FLASH_CPUSS_SYSREQ_REG = CY_FLASH_CPUSS_REQ_START | CY_FLASH_API_OPCODE_CLK_RESTORE;
 837:Generated_Source\PSoC4/CyLib.c ****             (void) CY_FLASH_CPUSS_SYSARG_REG;
 838:Generated_Source\PSoC4/CyLib.c **** 
 839:Generated_Source\PSoC4/CyLib.c ****         #else /* (CY_IP_FM) */
 840:Generated_Source\PSoC4/CyLib.c **** 
 841:Generated_Source\PSoC4/CyLib.c ****         if ((freq >= CY_SYS_CLK_IMO_MIN_FREQ_MHZ) && (freq <= CY_SYS_CLK_IMO_MAX_FREQ_MHZ))
 842:Generated_Source\PSoC4/CyLib.c ****         {
 843:Generated_Source\PSoC4/CyLib.c ****             if(freq <= CY_SFLASH_IMO_MAXF0_REG)
 844:Generated_Source\PSoC4/CyLib.c ****             {
 845:Generated_Source\PSoC4/CyLib.c ****                 bgTrim4 = CY_SFLASH_IMO_ABS0_REG;
 846:Generated_Source\PSoC4/CyLib.c ****                 bgTrim5 = CY_SFLASH_IMO_TMPCO0_REG;
 847:Generated_Source\PSoC4/CyLib.c ****             }
 848:Generated_Source\PSoC4/CyLib.c ****             else if(freq <= CY_SFLASH_IMO_MAXF1_REG)
 849:Generated_Source\PSoC4/CyLib.c ****             {
 850:Generated_Source\PSoC4/CyLib.c ****                 bgTrim4 = CY_SFLASH_IMO_ABS1_REG;
 851:Generated_Source\PSoC4/CyLib.c ****                 bgTrim5 = CY_SFLASH_IMO_TMPCO1_REG;
 852:Generated_Source\PSoC4/CyLib.c ****             }
 853:Generated_Source\PSoC4/CyLib.c ****             else if(freq <= CY_SFLASH_IMO_MAXF2_REG)
 854:Generated_Source\PSoC4/CyLib.c ****             {
 855:Generated_Source\PSoC4/CyLib.c ****                 bgTrim4 = CY_SFLASH_IMO_ABS2_REG;
 856:Generated_Source\PSoC4/CyLib.c ****                 bgTrim5 = CY_SFLASH_IMO_TMPCO2_REG;
 857:Generated_Source\PSoC4/CyLib.c ****             }
 858:Generated_Source\PSoC4/CyLib.c ****             else if(freq <= CY_SFLASH_IMO_MAXF3_REG)
 859:Generated_Source\PSoC4/CyLib.c ****             {
ARM GAS  C:\Users\Jesus\AppData\Local\Temp\cc071y2F.s 			page 21


 860:Generated_Source\PSoC4/CyLib.c ****                 bgTrim4 = CY_SFLASH_IMO_ABS3_REG;
 861:Generated_Source\PSoC4/CyLib.c ****                 bgTrim5 = CY_SFLASH_IMO_TMPCO3_REG;
 862:Generated_Source\PSoC4/CyLib.c ****             }
 863:Generated_Source\PSoC4/CyLib.c ****             else
 864:Generated_Source\PSoC4/CyLib.c ****             {
 865:Generated_Source\PSoC4/CyLib.c ****                 bgTrim4 = CY_SFLASH_IMO_ABS4_REG;
 866:Generated_Source\PSoC4/CyLib.c ****                 bgTrim5 = CY_SFLASH_IMO_TMPCO4_REG;
 867:Generated_Source\PSoC4/CyLib.c ****             }
 868:Generated_Source\PSoC4/CyLib.c **** 
 869:Generated_Source\PSoC4/CyLib.c ****             /* Get IMO_TRIM2 value for the new frequency */
 870:Generated_Source\PSoC4/CyLib.c ****             newImoTrim2Value = cyImoFreqMhz2Reg[freq - CY_SYS_CLK_IMO_FREQ_TABLE_OFFSET];
 871:Generated_Source\PSoC4/CyLib.c **** 
 872:Generated_Source\PSoC4/CyLib.c **** 
 873:Generated_Source\PSoC4/CyLib.c ****             /****************************************************************************
 874:Generated_Source\PSoC4/CyLib.c ****             * The IMO can have a different trim per frequency. To avoid possible corner
 875:Generated_Source\PSoC4/CyLib.c ****             * cases where a trim change can exceed the maximum frequency, the trim must
 876:Generated_Source\PSoC4/CyLib.c ****             * be applied at a frequency that is low enough.
 877:Generated_Source\PSoC4/CyLib.c ****             *
 878:Generated_Source\PSoC4/CyLib.c ****             * Comparing IMO_TRIM2 values for the current and new frequencies, since
 879:Generated_Source\PSoC4/CyLib.c ****             * IMO_TRIM2 value as a function of IMO frequency is a strictly increasing
 880:Generated_Source\PSoC4/CyLib.c ****             * function and is time-invariant.
 881:Generated_Source\PSoC4/CyLib.c ****             ***************************************************************************/
 882:Generated_Source\PSoC4/CyLib.c ****             if ((newImoTrim2Value >= CY_SYS_CLK_IMO_BOUNDARY_FREQ_TRIM2) && (freq >= CY_SYS_CLK_IMO
 883:Generated_Source\PSoC4/CyLib.c ****             {
 884:Generated_Source\PSoC4/CyLib.c ****                 /* Set boundary IMO frequency: safe for IMO above 48 MHZ trimming */
 885:Generated_Source\PSoC4/CyLib.c ****                 CY_SYS_CLK_IMO_TRIM2_REG = (uint32) cyImoFreqMhz2Reg[CY_SYS_CLK_IMO_TEMP_FREQ_MHZ -
 886:Generated_Source\PSoC4/CyLib.c ****                                                                      CY_SYS_CLK_IMO_FREQ_TABLE_OFFS
 887:Generated_Source\PSoC4/CyLib.c **** 
 888:Generated_Source\PSoC4/CyLib.c ****                 CyDelayCycles(CY_SYS_CLK_IMO_FREQ_TIMEOUT_CYCLES);
 889:Generated_Source\PSoC4/CyLib.c **** 
 890:Generated_Source\PSoC4/CyLib.c ****                 currentImoTrim2Value = CY_SYS_CLK_IMO_TEMP_FREQ_TRIM2;
 891:Generated_Source\PSoC4/CyLib.c ****             }
 892:Generated_Source\PSoC4/CyLib.c ****             else
 893:Generated_Source\PSoC4/CyLib.c ****             {
 894:Generated_Source\PSoC4/CyLib.c ****                 currentImoTrim2Value = (uint8) (CY_SYS_CLK_IMO_TRIM2_REG & CY_SYS_CLK_IMO_FREQ_BITS
 895:Generated_Source\PSoC4/CyLib.c ****             }
 896:Generated_Source\PSoC4/CyLib.c **** 
 897:Generated_Source\PSoC4/CyLib.c **** 
 898:Generated_Source\PSoC4/CyLib.c ****             /***************************************************************************
 899:Generated_Source\PSoC4/CyLib.c ****             * A trim change needs to be allowed to settle (within 5us) before the Freq
 900:Generated_Source\PSoC4/CyLib.c ****             * can be changed to a new frequency.
 901:Generated_Source\PSoC4/CyLib.c ****             *
 902:Generated_Source\PSoC4/CyLib.c ****             * Comparing IMO_TRIM2 values for the current and new frequencies, since
 903:Generated_Source\PSoC4/CyLib.c ****             * IMO_TRIM2 value as a function of IMO frequency is a strictly increasing
 904:Generated_Source\PSoC4/CyLib.c ****             * function and is time-invariant.
 905:Generated_Source\PSoC4/CyLib.c ****             ***************************************************************************/
 906:Generated_Source\PSoC4/CyLib.c ****             if (newImoTrim2Value < currentImoTrim2Value)
 907:Generated_Source\PSoC4/CyLib.c ****             {
 908:Generated_Source\PSoC4/CyLib.c ****                 /* Set new IMO frequency */
 909:Generated_Source\PSoC4/CyLib.c ****                 CY_SYS_CLK_IMO_TRIM2_REG = cyImoFreqMhz2Reg[freq - CY_SYS_CLK_IMO_FREQ_TABLE_OFFSET
 910:Generated_Source\PSoC4/CyLib.c ****                 CyDelayCycles(CY_SYS_CLK_IMO_FREQ_TIMEOUT_CYCLES);
 911:Generated_Source\PSoC4/CyLib.c ****             }
 912:Generated_Source\PSoC4/CyLib.c **** 
 913:Generated_Source\PSoC4/CyLib.c ****             /* Set trims for the new IMO frequency */
 914:Generated_Source\PSoC4/CyLib.c ****             CY_SYS_CLK_IMO_TRIM1_REG = (uint32) CY_SFLASH_IMO_TRIM_REG(freq - CY_SYS_CLK_IMO_FREQ_T
 915:Generated_Source\PSoC4/CyLib.c ****             CY_PWR_BG_TRIM4_REG  = bgTrim4;
 916:Generated_Source\PSoC4/CyLib.c ****             CY_PWR_BG_TRIM5_REG  = bgTrim5;
ARM GAS  C:\Users\Jesus\AppData\Local\Temp\cc071y2F.s 			page 22


 917:Generated_Source\PSoC4/CyLib.c ****             CyDelayUs(CY_SYS_CLK_IMO_TRIM_TIMEOUT_US);
 918:Generated_Source\PSoC4/CyLib.c **** 
 919:Generated_Source\PSoC4/CyLib.c ****             if (newImoTrim2Value > currentImoTrim2Value)
 920:Generated_Source\PSoC4/CyLib.c ****             {
 921:Generated_Source\PSoC4/CyLib.c ****                 /* Set new IMO frequency */
 922:Generated_Source\PSoC4/CyLib.c ****                 CY_SYS_CLK_IMO_TRIM2_REG = cyImoFreqMhz2Reg[freq - CY_SYS_CLK_IMO_FREQ_TABLE_OFFSET
 923:Generated_Source\PSoC4/CyLib.c ****                 CyDelayCycles(CY_SYS_CLK_IMO_FREQ_TIMEOUT_CYCLES);
 924:Generated_Source\PSoC4/CyLib.c ****             }
 925:Generated_Source\PSoC4/CyLib.c ****         }
 926:Generated_Source\PSoC4/CyLib.c ****         else
 927:Generated_Source\PSoC4/CyLib.c ****         {
 928:Generated_Source\PSoC4/CyLib.c ****             /* Halt CPU in debug mode if new frequency is invalid */
 929:Generated_Source\PSoC4/CyLib.c ****             CYASSERT(0u != 0u);
 930:Generated_Source\PSoC4/CyLib.c ****         }
 931:Generated_Source\PSoC4/CyLib.c **** 
 932:Generated_Source\PSoC4/CyLib.c ****         #endif /* (CY_IP_FMLT) */
 933:Generated_Source\PSoC4/CyLib.c **** 
 934:Generated_Source\PSoC4/CyLib.c ****         #if (CY_IP_IMO_TRIMMABLE_BY_WCO)
 935:Generated_Source\PSoC4/CyLib.c ****             if (1u == wcoLock)
 936:Generated_Source\PSoC4/CyLib.c ****             {
 937:Generated_Source\PSoC4/CyLib.c ****                 CySysClkImoEnableWcoLock();
 938:Generated_Source\PSoC4/CyLib.c ****             }
 939:Generated_Source\PSoC4/CyLib.c ****         #endif  /* (CY_IP_IMO_TRIMMABLE_BY_WCO) */
 940:Generated_Source\PSoC4/CyLib.c **** 
 941:Generated_Source\PSoC4/CyLib.c ****         #if (CY_IP_IMO_TRIMMABLE_BY_USB)
 942:Generated_Source\PSoC4/CyLib.c ****             if (1u == usbLock)
 943:Generated_Source\PSoC4/CyLib.c ****             {
 944:Generated_Source\PSoC4/CyLib.c ****                 CySysClkImoEnableUsbLock();
 945:Generated_Source\PSoC4/CyLib.c ****             }
 946:Generated_Source\PSoC4/CyLib.c ****         #endif  /* (CY_IP_IMO_TRIMMABLE_BY_USB) */
 947:Generated_Source\PSoC4/CyLib.c **** 
 948:Generated_Source\PSoC4/CyLib.c ****         CyExitCriticalSection(interruptState);
 949:Generated_Source\PSoC4/CyLib.c ****     }
 950:Generated_Source\PSoC4/CyLib.c **** 
 951:Generated_Source\PSoC4/CyLib.c **** #else
 952:Generated_Source\PSoC4/CyLib.c **** 
 953:Generated_Source\PSoC4/CyLib.c ****     void CySysClkWriteImoFreq(uint32 freq)
 954:Generated_Source\PSoC4/CyLib.c ****     {
 955:Generated_Source\PSoC4/CyLib.c ****         uint8  interruptState;
 956:Generated_Source\PSoC4/CyLib.c ****         uint8  imoTrim1Value;
 957:Generated_Source\PSoC4/CyLib.c **** 
 958:Generated_Source\PSoC4/CyLib.c ****         #if (CY_IP_IMO_TRIMMABLE_BY_WCO)
 959:Generated_Source\PSoC4/CyLib.c ****             uint32 wcoLock = 0u;
 960:Generated_Source\PSoC4/CyLib.c ****         #endif  /* (CY_IP_IMO_TRIMMABLE_BY_WCO) */        
 961:Generated_Source\PSoC4/CyLib.c ****         
 962:Generated_Source\PSoC4/CyLib.c ****         #if (CY_IP_IMO_TRIMMABLE_BY_USB)
 963:Generated_Source\PSoC4/CyLib.c ****             uint32 usbLock = 0u;
 964:Generated_Source\PSoC4/CyLib.c ****         #endif  /* (CY_IP_IMO_TRIMMABLE_BY_USB) */
 965:Generated_Source\PSoC4/CyLib.c **** 
 966:Generated_Source\PSoC4/CyLib.c ****         #if (CY_PSOC4_4000)
 967:Generated_Source\PSoC4/CyLib.c ****             if ((freq == 24u) || (freq == 32u) || (freq == 48u))
 968:Generated_Source\PSoC4/CyLib.c ****         #elif (CY_CCG3)
 969:Generated_Source\PSoC4/CyLib.c ****             if ((freq == 24u) || (freq == 36u) || (freq == 48u))
 970:Generated_Source\PSoC4/CyLib.c ****         #else
 971:Generated_Source\PSoC4/CyLib.c ****             if ((freq == 24u) || (freq == 28u) || (freq == 32u) ||
 972:Generated_Source\PSoC4/CyLib.c ****                 (freq == 36u) || (freq == 40u) || (freq == 44u) ||
 973:Generated_Source\PSoC4/CyLib.c ****                 (freq == 48u))
ARM GAS  C:\Users\Jesus\AppData\Local\Temp\cc071y2F.s 			page 23


 974:Generated_Source\PSoC4/CyLib.c ****         #endif /* (CY_PSOC4_4000) */
 975:Generated_Source\PSoC4/CyLib.c ****         {
 976:Generated_Source\PSoC4/CyLib.c ****             interruptState = CyEnterCriticalSection();
 977:Generated_Source\PSoC4/CyLib.c **** 
 978:Generated_Source\PSoC4/CyLib.c ****             #if (CY_IP_IMO_TRIMMABLE_BY_WCO)
 979:Generated_Source\PSoC4/CyLib.c ****                 if(0u != CySysClkImoGetWcoLock())
 980:Generated_Source\PSoC4/CyLib.c ****                 {
 981:Generated_Source\PSoC4/CyLib.c ****                     wcoLock = 1u;
 982:Generated_Source\PSoC4/CyLib.c ****                     CySysClkImoDisableWcoLock();
 983:Generated_Source\PSoC4/CyLib.c ****                 }
 984:Generated_Source\PSoC4/CyLib.c ****             #endif  /* (CY_IP_IMO_TRIMMABLE_BY_WCO) */
 985:Generated_Source\PSoC4/CyLib.c **** 
 986:Generated_Source\PSoC4/CyLib.c ****             #if (CY_IP_IMO_TRIMMABLE_BY_USB)
 987:Generated_Source\PSoC4/CyLib.c **** 
 988:Generated_Source\PSoC4/CyLib.c ****                 #if (CYDEV_IMO_TRIMMED_BY_USB == 0u)
 989:Generated_Source\PSoC4/CyLib.c ****                     if(0u != CySysClkImoGetUsbLock())
 990:Generated_Source\PSoC4/CyLib.c ****                     {
 991:Generated_Source\PSoC4/CyLib.c ****                 #endif  /* (CYDEV_IMO_TRIMMED_BY_USB == 0u) */
 992:Generated_Source\PSoC4/CyLib.c **** 
 993:Generated_Source\PSoC4/CyLib.c ****                     if (48u == freq)
 994:Generated_Source\PSoC4/CyLib.c ****                     {
 995:Generated_Source\PSoC4/CyLib.c ****                         usbLock = 1u;
 996:Generated_Source\PSoC4/CyLib.c ****                         CySysClkImoDisableUsbLock();
 997:Generated_Source\PSoC4/CyLib.c ****                     }
 998:Generated_Source\PSoC4/CyLib.c **** 
 999:Generated_Source\PSoC4/CyLib.c ****                 #if (CYDEV_IMO_TRIMMED_BY_USB == 0u)
1000:Generated_Source\PSoC4/CyLib.c ****                     }
1001:Generated_Source\PSoC4/CyLib.c ****                 #endif  /* (CYDEV_IMO_TRIMMED_BY_USB == 0u) */
1002:Generated_Source\PSoC4/CyLib.c **** 
1003:Generated_Source\PSoC4/CyLib.c ****             #endif  /* (CYDEV_IMO_TRIMMED_BY_USB == 0u) */
1004:Generated_Source\PSoC4/CyLib.c **** 
1005:Generated_Source\PSoC4/CyLib.c **** 
1006:Generated_Source\PSoC4/CyLib.c ****             /* Set IMO to 24 MHz - CLK_IMO_SELECT.FREQ = 0 */
1007:Generated_Source\PSoC4/CyLib.c ****             CY_SYS_CLK_IMO_SELECT_REG &= ((uint32) ~CY_SYS_CLK_IMO_SELECT_FREQ_MASK);
1008:Generated_Source\PSoC4/CyLib.c **** 
1009:Generated_Source\PSoC4/CyLib.c **** 
1010:Generated_Source\PSoC4/CyLib.c ****             /* Apply coarse trim */
1011:Generated_Source\PSoC4/CyLib.c ****             #if (CY_IP_IMO_TRIMMABLE_BY_USB)
1012:Generated_Source\PSoC4/CyLib.c ****                 if ((1u == usbLock) && (48u == freq))
1013:Generated_Source\PSoC4/CyLib.c ****                 {
1014:Generated_Source\PSoC4/CyLib.c ****                     imoTrim1Value = CY_SFLASH_IMO_TRIM_USBMODE_48_REG;
1015:Generated_Source\PSoC4/CyLib.c ****                 }
1016:Generated_Source\PSoC4/CyLib.c ****                 else if ((1u == usbLock) && (24u == freq))
1017:Generated_Source\PSoC4/CyLib.c ****                 {
1018:Generated_Source\PSoC4/CyLib.c ****                     imoTrim1Value = CY_SFLASH_IMO_TRIM_USBMODE_24_REG;
1019:Generated_Source\PSoC4/CyLib.c ****                 }
1020:Generated_Source\PSoC4/CyLib.c ****                 else
1021:Generated_Source\PSoC4/CyLib.c ****                 {
1022:Generated_Source\PSoC4/CyLib.c ****                     imoTrim1Value = (uint8) CY_SFLASH_IMO_TRIM_REG(freq - CY_SYS_CLK_IMO_MIN_FREQ_M
1023:Generated_Source\PSoC4/CyLib.c ****                 }
1024:Generated_Source\PSoC4/CyLib.c ****             #else
1025:Generated_Source\PSoC4/CyLib.c ****                 imoTrim1Value = (uint8) CY_SFLASH_IMO_TRIM_REG(freq - CY_SYS_CLK_IMO_MIN_FREQ_MHZ);
1026:Generated_Source\PSoC4/CyLib.c ****             #endif  /* (CY_IP_IMO_TRIMMABLE_BY_USB) */
1027:Generated_Source\PSoC4/CyLib.c ****             CY_SYS_CLK_IMO_TRIM1_REG = (uint32) imoTrim1Value;
1028:Generated_Source\PSoC4/CyLib.c **** 
1029:Generated_Source\PSoC4/CyLib.c ****             /* Zero out fine trim */
1030:Generated_Source\PSoC4/CyLib.c ****             CY_SYS_CLK_IMO_TRIM2_REG = CY_SYS_CLK_IMO_TRIM2_REG & ((uint32) ~CY_SYS_CLK_IMO_TRIM2_F
ARM GAS  C:\Users\Jesus\AppData\Local\Temp\cc071y2F.s 			page 24


1031:Generated_Source\PSoC4/CyLib.c **** 
1032:Generated_Source\PSoC4/CyLib.c ****             /* Apply TC trim */
1033:Generated_Source\PSoC4/CyLib.c ****             CY_SYS_CLK_IMO_TRIM3_REG = (CY_SYS_CLK_IMO_TRIM3_REG & ((uint32) ~CY_SYS_CLK_IMO_TRIM3_
1034:Generated_Source\PSoC4/CyLib.c ****                 (CY_SFLASH_IMO_TCTRIM_REG(freq - CY_SYS_CLK_IMO_MIN_FREQ_MHZ) & CY_SYS_CLK_IMO_TRIM
1035:Generated_Source\PSoC4/CyLib.c **** 
1036:Generated_Source\PSoC4/CyLib.c ****             CyDelayCycles(CY_SYS_CLK_IMO_TRIM_DELAY_CYCLES);
1037:Generated_Source\PSoC4/CyLib.c **** 
1038:Generated_Source\PSoC4/CyLib.c ****             if (freq > CY_SYS_CLK_IMO_MIN_FREQ_MHZ)
1039:Generated_Source\PSoC4/CyLib.c ****             {
1040:Generated_Source\PSoC4/CyLib.c ****                 /* Select nearby intermediate frequency */
1041:Generated_Source\PSoC4/CyLib.c ****                 CY_SYS_CLK_IMO_SELECT_REG = (CY_SYS_CLK_IMO_SELECT_REG & ((uint32) ~CY_SYS_CLK_IMO_
1042:Generated_Source\PSoC4/CyLib.c ****                     (((freq - 4u - CY_SYS_CLK_IMO_MIN_FREQ_MHZ) >> 2u) & CY_SYS_CLK_IMO_SELECT_FREQ
1043:Generated_Source\PSoC4/CyLib.c **** 
1044:Generated_Source\PSoC4/CyLib.c ****                 CyDelayCycles(CY_SYS_CLK_IMO_TRIM_DELAY_CYCLES);
1045:Generated_Source\PSoC4/CyLib.c **** 
1046:Generated_Source\PSoC4/CyLib.c ****                 /* Make small step to final frequency */
1047:Generated_Source\PSoC4/CyLib.c ****                 /* Select nearby intermediate frequency */
1048:Generated_Source\PSoC4/CyLib.c ****                 CY_SYS_CLK_IMO_SELECT_REG = (CY_SYS_CLK_IMO_SELECT_REG & ((uint32) ~CY_SYS_CLK_IMO_
1049:Generated_Source\PSoC4/CyLib.c ****                     (((freq - CY_SYS_CLK_IMO_MIN_FREQ_MHZ) >> 2u) & CY_SYS_CLK_IMO_SELECT_FREQ_MASK
1050:Generated_Source\PSoC4/CyLib.c ****             }
1051:Generated_Source\PSoC4/CyLib.c **** 
1052:Generated_Source\PSoC4/CyLib.c ****             #if (CY_IP_IMO_TRIMMABLE_BY_WCO)
1053:Generated_Source\PSoC4/CyLib.c ****                 if (1u == wcoLock)
1054:Generated_Source\PSoC4/CyLib.c ****                 {
1055:Generated_Source\PSoC4/CyLib.c ****                     CySysClkImoEnableWcoLock();
1056:Generated_Source\PSoC4/CyLib.c ****                 }
1057:Generated_Source\PSoC4/CyLib.c ****             #endif  /* (CY_IP_IMO_TRIMMABLE_BY_WCO) */
1058:Generated_Source\PSoC4/CyLib.c ****         
1059:Generated_Source\PSoC4/CyLib.c ****         
1060:Generated_Source\PSoC4/CyLib.c ****             #if (CY_IP_IMO_TRIMMABLE_BY_USB)
1061:Generated_Source\PSoC4/CyLib.c ****                 if (1u == usbLock)
1062:Generated_Source\PSoC4/CyLib.c ****                 {
1063:Generated_Source\PSoC4/CyLib.c ****                     CySysClkImoEnableUsbLock();
1064:Generated_Source\PSoC4/CyLib.c ****                 }
1065:Generated_Source\PSoC4/CyLib.c ****             #endif  /* (CY_IP_IMO_TRIMMABLE_BY_USB) */
1066:Generated_Source\PSoC4/CyLib.c **** 
1067:Generated_Source\PSoC4/CyLib.c ****             CyExitCriticalSection(interruptState);
1068:Generated_Source\PSoC4/CyLib.c ****         }
1069:Generated_Source\PSoC4/CyLib.c ****         else
1070:Generated_Source\PSoC4/CyLib.c ****         {
1071:Generated_Source\PSoC4/CyLib.c ****             /* Halt CPU in debug mode if new frequency is invalid */
1072:Generated_Source\PSoC4/CyLib.c ****             CYASSERT(0u != 0u);
1073:Generated_Source\PSoC4/CyLib.c ****         }
1074:Generated_Source\PSoC4/CyLib.c ****     }
1075:Generated_Source\PSoC4/CyLib.c **** 
1076:Generated_Source\PSoC4/CyLib.c **** #endif /* (CY_IP_SRSSV2) */
1077:Generated_Source\PSoC4/CyLib.c **** 
1078:Generated_Source\PSoC4/CyLib.c **** 
1079:Generated_Source\PSoC4/CyLib.c **** #if(CY_IP_SRSSLT)
1080:Generated_Source\PSoC4/CyLib.c ****     /*******************************************************************************
1081:Generated_Source\PSoC4/CyLib.c ****     * Function Name: CySysClkWriteHfclkDiv
1082:Generated_Source\PSoC4/CyLib.c ****     ****************************************************************************//**
1083:Generated_Source\PSoC4/CyLib.c ****     *
1084:Generated_Source\PSoC4/CyLib.c ****     * Selects the pre-scaler divider value for HFCLK from IMO.
1085:Generated_Source\PSoC4/CyLib.c ****     *
1086:Generated_Source\PSoC4/CyLib.c ****     * The HFCLK predivider allows the device to divide the HFCLK selection mux
1087:Generated_Source\PSoC4/CyLib.c ****     * input before use as HFCLK. The predivider is capable of dividing the HFCLK by
ARM GAS  C:\Users\Jesus\AppData\Local\Temp\cc071y2F.s 			page 25


1088:Generated_Source\PSoC4/CyLib.c ****     * powers of 2 between 1 and 8.
1089:Generated_Source\PSoC4/CyLib.c ****     *
1090:Generated_Source\PSoC4/CyLib.c ****     * PSoC 4000: The SYSCLK has the speed of 16 MHz, so HFCLK and SYSCLK dividers
1091:Generated_Source\PSoC4/CyLib.c ****     * should be selected in a way, not to exceed 16 MHz for SYSCLK.
1092:Generated_Source\PSoC4/CyLib.c ****     *
1093:Generated_Source\PSoC4/CyLib.c ****     * If the SYSCLK clock frequency increases during the device operation, call
1094:Generated_Source\PSoC4/CyLib.c ****     * \ref CySysFlashSetWaitCycles() with the appropriate parameter to adjust the
1095:Generated_Source\PSoC4/CyLib.c ****     * number of clock cycles the cache will wait before sampling data comes back
1096:Generated_Source\PSoC4/CyLib.c ****     * from Flash. If the SYSCLK clock frequency decreases, you can call
1097:Generated_Source\PSoC4/CyLib.c ****     * \ref CySysFlashSetWaitCycles() to improve the CPU performance. See
1098:Generated_Source\PSoC4/CyLib.c ****     * \ref CySysFlashSetWaitCycles() description for more information.
1099:Generated_Source\PSoC4/CyLib.c ****     *
1100:Generated_Source\PSoC4/CyLib.c ****     * \param \ref CY_SYS_CLK_HFCLK_DIV_NODIV    Transparent mode (w/o dividing)
1101:Generated_Source\PSoC4/CyLib.c ****     * \param \ref CY_SYS_CLK_HFCLK_DIV_2        Divide selected clock source by 2
1102:Generated_Source\PSoC4/CyLib.c ****     * \param \ref CY_SYS_CLK_HFCLK_DIV_4        Divide selected clock source by 4
1103:Generated_Source\PSoC4/CyLib.c ****     * \param \ref CY_SYS_CLK_HFCLK_DIV_8        Divide selected clock source by 8
1104:Generated_Source\PSoC4/CyLib.c ****     *
1105:Generated_Source\PSoC4/CyLib.c ****     *******************************************************************************/
1106:Generated_Source\PSoC4/CyLib.c ****     void CySysClkWriteHfclkDiv(uint32 divider)
1107:Generated_Source\PSoC4/CyLib.c ****     {
1108:Generated_Source\PSoC4/CyLib.c ****         uint8  interruptState;
1109:Generated_Source\PSoC4/CyLib.c **** 
1110:Generated_Source\PSoC4/CyLib.c ****         interruptState = CyEnterCriticalSection();
1111:Generated_Source\PSoC4/CyLib.c **** 
1112:Generated_Source\PSoC4/CyLib.c ****         CY_SYS_CLK_SELECT_REG = ((CY_SYS_CLK_SELECT_REG & ((uint32) (~(CY_SYS_CLK_SELECT_HFCLK_DIV_
1113:Generated_Source\PSoC4/CyLib.c ****                                         CY_SYS_CLK_SELECT_HFCLK_DIV_SHIFT)))) |
1114:Generated_Source\PSoC4/CyLib.c ****                     ((uint32)((divider & CY_SYS_CLK_SELECT_HFCLK_DIV_MASK) << CY_SYS_CLK_SELECT_HFC
1115:Generated_Source\PSoC4/CyLib.c **** 
1116:Generated_Source\PSoC4/CyLib.c ****         CyExitCriticalSection(interruptState);
1117:Generated_Source\PSoC4/CyLib.c ****     }
1118:Generated_Source\PSoC4/CyLib.c **** #endif /* (CY_IP_SRSSLT) */
1119:Generated_Source\PSoC4/CyLib.c **** 
1120:Generated_Source\PSoC4/CyLib.c **** 
1121:Generated_Source\PSoC4/CyLib.c **** #if (CY_IP_ECO)
1122:Generated_Source\PSoC4/CyLib.c **** 
1123:Generated_Source\PSoC4/CyLib.c ****     /*******************************************************************************
1124:Generated_Source\PSoC4/CyLib.c ****     * Function Name: CySysClkEcoStart
1125:Generated_Source\PSoC4/CyLib.c ****     ****************************************************************************//**
1126:Generated_Source\PSoC4/CyLib.c ****     *
1127:Generated_Source\PSoC4/CyLib.c ****     * Starts the External Crystal Oscillator (ECO). Refer to the device datasheet
1128:Generated_Source\PSoC4/CyLib.c ****     * for the ECO startup time.
1129:Generated_Source\PSoC4/CyLib.c ****     *
1130:Generated_Source\PSoC4/CyLib.c ****     * The timeout interval is measured based on the system frequency defined by
1131:Generated_Source\PSoC4/CyLib.c ****     * PSoC Creator at build time. If System clock frequency is changed in
1132:Generated_Source\PSoC4/CyLib.c ****     * runtime, the \ref CyDelayFreq() with the appropriate parameter should be
1133:Generated_Source\PSoC4/CyLib.c ****     * called.
1134:Generated_Source\PSoC4/CyLib.c ****     *
1135:Generated_Source\PSoC4/CyLib.c ****     * PSoC 4100 BLE / PSoC 4200 BLE: The WCO must be enabled prior to enabling ECO.
1136:Generated_Source\PSoC4/CyLib.c ****     *
1137:Generated_Source\PSoC4/CyLib.c ****     * \param timeoutUs Timeout in microseconds.
1138:Generated_Source\PSoC4/CyLib.c ****     *
1139:Generated_Source\PSoC4/CyLib.c ****     * If zero is specified, the function does not wait for timeout and returns
1140:Generated_Source\PSoC4/CyLib.c ****     * CYRET_SUCCESS. If non-zero is specified, the function waits for the timeout.
1141:Generated_Source\PSoC4/CyLib.c ****     *
1142:Generated_Source\PSoC4/CyLib.c ****     * \return \ref CYRET_SUCCESS Completed successfully. The ECO is oscillating and
1143:Generated_Source\PSoC4/CyLib.c ****     * amplitude reached 60% and it does not mean 24 MHz crystal is within 50 ppm.
1144:Generated_Source\PSoC4/CyLib.c ****     *
ARM GAS  C:\Users\Jesus\AppData\Local\Temp\cc071y2F.s 			page 26


1145:Generated_Source\PSoC4/CyLib.c ****     * \return \ref CYRET_TIMEOUT Timeout occurred. If the crystal is not oscillating
1146:Generated_Source\PSoC4/CyLib.c ****     * or amplitude didn't reach 60% after specified amount of time, CYRET_TIMEOUT
1147:Generated_Source\PSoC4/CyLib.c ****     * is returned.
1148:Generated_Source\PSoC4/CyLib.c ****     *
1149:Generated_Source\PSoC4/CyLib.c ****     * \return \ref CYRET_BAD_PARAM One or more invalid parameters.
1150:Generated_Source\PSoC4/CyLib.c ****     *
1151:Generated_Source\PSoC4/CyLib.c ****     *******************************************************************************/
1152:Generated_Source\PSoC4/CyLib.c ****     cystatus CySysClkEcoStart(uint32 timeoutUs)
1153:Generated_Source\PSoC4/CyLib.c ****     {
1154:Generated_Source\PSoC4/CyLib.c ****         cystatus returnStatus = CYRET_SUCCESS;
1155:Generated_Source\PSoC4/CyLib.c **** 
1156:Generated_Source\PSoC4/CyLib.c ****         #if (CY_IP_ECO_BLESS)
1157:Generated_Source\PSoC4/CyLib.c ****             /* Enable the RF oscillator band gap */
1158:Generated_Source\PSoC4/CyLib.c ****             CY_SYS_XTAL_BLESS_RF_CONFIG_REG |= CY_SYS_XTAL_BLESS_RF_CONFIG_RF_ENABLE;
1159:Generated_Source\PSoC4/CyLib.c **** 
1160:Generated_Source\PSoC4/CyLib.c ****             /* Update trimming register */
1161:Generated_Source\PSoC4/CyLib.c ****             CY_SYS_XTAL_BLERD_BB_XO_REG = CY_SYS_XTAL_BLERD_BB_XO_TRIM;
1162:Generated_Source\PSoC4/CyLib.c **** 
1163:Generated_Source\PSoC4/CyLib.c ****             /* Enable the Crystal */
1164:Generated_Source\PSoC4/CyLib.c ****             CY_SYS_XTAL_BLERD_DBUS_REG |= CY_SYS_XTAL_BLERD_DBUS_XTAL_ENABLE;
1165:Generated_Source\PSoC4/CyLib.c ****         
1166:Generated_Source\PSoC4/CyLib.c ****         #elif (CY_IP_ECO_BLESSV3)
1167:Generated_Source\PSoC4/CyLib.c ****             uint32 regConfig;
1168:Generated_Source\PSoC4/CyLib.c ****             uint32 intrRegMaskStore = 0u;
1169:Generated_Source\PSoC4/CyLib.c ****             
1170:Generated_Source\PSoC4/CyLib.c ****             if (0u != (CY_SYS_BLESS_MT_CFG_REG & (CY_SYS_BLESS_MT_CFG_ENABLE_BLERD <<  CYFLD_BLE_BL
1171:Generated_Source\PSoC4/CyLib.c ****             {
1172:Generated_Source\PSoC4/CyLib.c ****                 CY_SYS_BLESS_MT_CFG_REG |= (CY_SYS_BLESS_MT_CFG_DPSLP_ECO_ON  <<  CYFLD_BLE_BLESS_D
1173:Generated_Source\PSoC4/CyLib.c ****             }
1174:Generated_Source\PSoC4/CyLib.c ****             else
1175:Generated_Source\PSoC4/CyLib.c ****             {
1176:Generated_Source\PSoC4/CyLib.c ****                 /* Init BLE core */
1177:Generated_Source\PSoC4/CyLib.c ****                 CY_SYS_BLESS_MT_DELAY_CFG_REG = CY_SYS_BLESS_MT_DELAY_CFG_INIT;
1178:Generated_Source\PSoC4/CyLib.c ****                 CY_SYS_BLESS_MT_DELAY_CFG2_REG = CY_SYS_BLESS_MT_DELAY_CFG2_INIT;
1179:Generated_Source\PSoC4/CyLib.c ****                 CY_SYS_BLESS_MT_DELAY_CFG3_REG = CY_SYS_BLESS_MT_DELAY_CFG3_INIT;
1180:Generated_Source\PSoC4/CyLib.c ****             
1181:Generated_Source\PSoC4/CyLib.c ****                 /* RCB init */
1182:Generated_Source\PSoC4/CyLib.c ****                 regConfig = CY_SYS_RCB_CTRL_REG;
1183:Generated_Source\PSoC4/CyLib.c ****                 regConfig &= CY_SYS_RCB_CTRL_CLEAR;
1184:Generated_Source\PSoC4/CyLib.c ****                 regConfig |= CY_SYS_RCB_CTRL_INIT;
1185:Generated_Source\PSoC4/CyLib.c ****                 CY_SYS_RCB_CTRL_REG = regConfig;
1186:Generated_Source\PSoC4/CyLib.c ****                 
1187:Generated_Source\PSoC4/CyLib.c ****                 intrRegMaskStore = CY_SYS_BLESS_INTR_MASK_REG;
1188:Generated_Source\PSoC4/CyLib.c ****                 if(0u != (CY_SYS_BLESS_BLERD_ACTIVE_INTR_MASK & intrRegMaskStore))
1189:Generated_Source\PSoC4/CyLib.c ****                 {
1190:Generated_Source\PSoC4/CyLib.c ****                     CY_SYS_BLESS_INTR_MASK_REG &= ~CY_SYS_BLESS_BLERD_ACTIVE_INTR_MASK;
1191:Generated_Source\PSoC4/CyLib.c ****                 }
1192:Generated_Source\PSoC4/CyLib.c ****                 
1193:Generated_Source\PSoC4/CyLib.c ****                 /* Enable BLE core */
1194:Generated_Source\PSoC4/CyLib.c ****                 regConfig = CY_SYS_BLESS_MT_CFG_REG;
1195:Generated_Source\PSoC4/CyLib.c ****                 regConfig &= CY_SYS_BLESS_MT_CFG_CLEAR;
1196:Generated_Source\PSoC4/CyLib.c ****                 regConfig |= CY_SYS_BLESS_MT_CFG_INIT;
1197:Generated_Source\PSoC4/CyLib.c ****                 CY_SYS_BLESS_MT_CFG_REG = regConfig;
1198:Generated_Source\PSoC4/CyLib.c **** 
1199:Generated_Source\PSoC4/CyLib.c ****                 while(0u == ((CY_SYS_BLESS_BLERD_ACTIVE_INTR_STAT & CY_SYS_BLESS_INTR_STAT_REG)))
1200:Generated_Source\PSoC4/CyLib.c ****                 {
1201:Generated_Source\PSoC4/CyLib.c ****                     /* Wait until BLERD55 moves to active state */
ARM GAS  C:\Users\Jesus\AppData\Local\Temp\cc071y2F.s 			page 27


1202:Generated_Source\PSoC4/CyLib.c ****                 }
1203:Generated_Source\PSoC4/CyLib.c **** 
1204:Generated_Source\PSoC4/CyLib.c ****                 if(0u != (CY_SYS_BLESS_BLERD_ACTIVE_INTR_MASK & intrRegMaskStore))
1205:Generated_Source\PSoC4/CyLib.c ****                 {
1206:Generated_Source\PSoC4/CyLib.c ****                     CY_SYS_BLESS_INTR_MASK_REG |= CY_SYS_BLESS_BLERD_ACTIVE_INTR_MASK;
1207:Generated_Source\PSoC4/CyLib.c ****                 }
1208:Generated_Source\PSoC4/CyLib.c ****                 
1209:Generated_Source\PSoC4/CyLib.c ****                 /* Send write commands to RBUS */
1210:Generated_Source\PSoC4/CyLib.c ****                 CY_SYS_RCB_TX_FIFO_WR_REG = CY_SYS_RCB_RBUS_FREQ_NRST_SET;
1211:Generated_Source\PSoC4/CyLib.c ****                 CY_SYS_RCB_TX_FIFO_WR_REG = CY_SYS_RCB_RBUS_DIG_CLK_SET;
1212:Generated_Source\PSoC4/CyLib.c ****                 
1213:Generated_Source\PSoC4/CyLib.c ****                 #if (CY_SYS_BLE_CLK_ECO_FREQ_32MHZ == CYDEV_ECO_CLK_MHZ)
1214:Generated_Source\PSoC4/CyLib.c ****                     CY_SYS_RCB_TX_FIFO_WR_REG = CY_SYS_RCB_RBUS_FREQ_XTAL_DIV_SET;
1215:Generated_Source\PSoC4/CyLib.c ****                     CY_SYS_RCB_TX_FIFO_WR_REG = (CY_SYS_RCB_RBUS_RF_DCXO_CFG_SET | CY_SYS_RCB_RBUS_
1216:Generated_Source\PSoC4/CyLib.c ****                 #else
1217:Generated_Source\PSoC4/CyLib.c ****                     CY_SYS_RCB_TX_FIFO_WR_REG = CY_SYS_RCB_RBUS_FREQ_XTAL_NODIV_SET;
1218:Generated_Source\PSoC4/CyLib.c ****                 #endif
1219:Generated_Source\PSoC4/CyLib.c ****                 
1220:Generated_Source\PSoC4/CyLib.c ****                 intrRegMaskStore = CY_SYS_BLESS_INTR_MASK_REG;
1221:Generated_Source\PSoC4/CyLib.c ****                 if(0u != (CY_SYS_RCB_INTR_RCB_DONE & intrRegMaskStore))
1222:Generated_Source\PSoC4/CyLib.c ****                 {
1223:Generated_Source\PSoC4/CyLib.c ****                     CY_SYS_BLESS_INTR_MASK_REG &= ~(CY_SYS_RCB_INTR_RCB_DONE | CY_SYS_RCB_INTR_RCB_
1224:Generated_Source\PSoC4/CyLib.c ****                 }
1225:Generated_Source\PSoC4/CyLib.c ****                 
1226:Generated_Source\PSoC4/CyLib.c ****                 /* Send read commands to RBUS */
1227:Generated_Source\PSoC4/CyLib.c ****                 CY_SYS_RCB_TX_FIFO_WR_REG = (CY_SYS_RCB_RBUS_RD_CMD | 
1228:Generated_Source\PSoC4/CyLib.c ****                                             (CY_SYS_RCB_RBUS_RF_DCXO_CFG_SET & ~CY_SYS_RCB_RBUS_VAL
1229:Generated_Source\PSoC4/CyLib.c ****                                             
1230:Generated_Source\PSoC4/CyLib.c ****                 while (0u == (CY_SYS_RCB_INTR_RCB_RX_FIFO_NOT_EMPTY & CY_SYS_RCB_INTR_REG))
1231:Generated_Source\PSoC4/CyLib.c ****                 {
1232:Generated_Source\PSoC4/CyLib.c ****                     /* Wait until RX_FIFO_NOT_EMPTY state */
1233:Generated_Source\PSoC4/CyLib.c ****                 }
1234:Generated_Source\PSoC4/CyLib.c **** 
1235:Generated_Source\PSoC4/CyLib.c ****                 CY_SYS_RCB_INTR_REG |= CY_SYS_RCB_INTR_RCB_DONE;
1236:Generated_Source\PSoC4/CyLib.c ****                 
1237:Generated_Source\PSoC4/CyLib.c ****                 regConfig = CY_SYS_RCB_RX_FIFO_RD_REG & CY_SYS_RCB_RBUS_TRIM_MASK;
1238:Generated_Source\PSoC4/CyLib.c ****                 
1239:Generated_Source\PSoC4/CyLib.c ****                 /* Send write commands to RBUS */
1240:Generated_Source\PSoC4/CyLib.c ****                 CY_SYS_RCB_TX_FIFO_WR_REG = (CY_SYS_RCB_RBUS_RF_DCXO_CFG_SET | regConfig | CY_SYS_R
1241:Generated_Source\PSoC4/CyLib.c ****                 
1242:Generated_Source\PSoC4/CyLib.c ****                 while (0u == (CY_SYS_RCB_INTR_RCB_DONE & CY_SYS_RCB_INTR_REG))
1243:Generated_Source\PSoC4/CyLib.c ****                 {
1244:Generated_Source\PSoC4/CyLib.c ****                     /* Wait until RCB_DONE state */
1245:Generated_Source\PSoC4/CyLib.c ****                 }
1246:Generated_Source\PSoC4/CyLib.c ****                 
1247:Generated_Source\PSoC4/CyLib.c ****                 /* Clear Interrupt */
1248:Generated_Source\PSoC4/CyLib.c ****                 CY_SYS_RCB_INTR_REG = CY_SYS_RCB_INTR_CLEAR;
1249:Generated_Source\PSoC4/CyLib.c ****                 
1250:Generated_Source\PSoC4/CyLib.c ****                 if(0u != ((CY_SYS_RCB_INTR_RCB_DONE | CY_SYS_RCB_INTR_RCB_RX_FIFO_NOT_EMPTY) & intr
1251:Generated_Source\PSoC4/CyLib.c ****                 {
1252:Generated_Source\PSoC4/CyLib.c ****                     CY_SYS_BLESS_INTR_MASK_REG |= intrRegMaskStore;
1253:Generated_Source\PSoC4/CyLib.c ****                 }
1254:Generated_Source\PSoC4/CyLib.c ****                 
1255:Generated_Source\PSoC4/CyLib.c ****             }
1256:Generated_Source\PSoC4/CyLib.c ****         #else /* CY_IP_ECO_SRSSV2 || CY_IP_ECO_SRSSLT */
1257:Generated_Source\PSoC4/CyLib.c ****             CY_SYS_CLK_ECO_CONFIG_REG |= CY_SYS_CLK_ECO_CONFIG_ENABLE;
1258:Generated_Source\PSoC4/CyLib.c ****             CyDelayUs(CY_SYS_CLK_ECO_CONFIG_CLK_EN_TIMEOUT_US);
ARM GAS  C:\Users\Jesus\AppData\Local\Temp\cc071y2F.s 			page 28


1259:Generated_Source\PSoC4/CyLib.c ****             #if (CY_IP_ECOV2_SRSSLT)
1260:Generated_Source\PSoC4/CyLib.c ****                 CySysClkPllClearPendingInterrupt(CY_SYS_PLL_INTR_WD_ERR);
1261:Generated_Source\PSoC4/CyLib.c ****             #endif /* (CY_IP_ECOV2_SRSSLT) */
1262:Generated_Source\PSoC4/CyLib.c ****             CY_SYS_CLK_ECO_CONFIG_REG |= CY_SYS_CLK_ECO_CONFIG_CLK_EN;
1263:Generated_Source\PSoC4/CyLib.c ****         #endif /* (CY_IP_ECO_BLESS) */
1264:Generated_Source\PSoC4/CyLib.c **** 
1265:Generated_Source\PSoC4/CyLib.c ****         if(timeoutUs > 0u)
1266:Generated_Source\PSoC4/CyLib.c ****         {
1267:Generated_Source\PSoC4/CyLib.c ****             returnStatus = CYRET_TIMEOUT;
1268:Generated_Source\PSoC4/CyLib.c **** 
1269:Generated_Source\PSoC4/CyLib.c ****             for( ; timeoutUs > 0u; timeoutUs--)
1270:Generated_Source\PSoC4/CyLib.c ****             {
1271:Generated_Source\PSoC4/CyLib.c ****                 CyDelayUs(1u);
1272:Generated_Source\PSoC4/CyLib.c **** 
1273:Generated_Source\PSoC4/CyLib.c ****                 if(0u != CySysClkEcoReadStatus())
1274:Generated_Source\PSoC4/CyLib.c ****                 {
1275:Generated_Source\PSoC4/CyLib.c ****                     returnStatus = CYRET_SUCCESS;
1276:Generated_Source\PSoC4/CyLib.c ****                     break;
1277:Generated_Source\PSoC4/CyLib.c ****                 }
1278:Generated_Source\PSoC4/CyLib.c ****             }
1279:Generated_Source\PSoC4/CyLib.c **** 
1280:Generated_Source\PSoC4/CyLib.c ****         }
1281:Generated_Source\PSoC4/CyLib.c **** 
1282:Generated_Source\PSoC4/CyLib.c ****         return(returnStatus);
1283:Generated_Source\PSoC4/CyLib.c ****     }
1284:Generated_Source\PSoC4/CyLib.c **** 
1285:Generated_Source\PSoC4/CyLib.c **** 
1286:Generated_Source\PSoC4/CyLib.c ****     /*******************************************************************************
1287:Generated_Source\PSoC4/CyLib.c ****     * Function Name: CySysClkEcoStop
1288:Generated_Source\PSoC4/CyLib.c ****     ****************************************************************************//**
1289:Generated_Source\PSoC4/CyLib.c ****     *
1290:Generated_Source\PSoC4/CyLib.c ****     * Stops the megahertz crystal.
1291:Generated_Source\PSoC4/CyLib.c ****     *
1292:Generated_Source\PSoC4/CyLib.c ****     * If ECO is disabled when it is sourcing HFCLK, the CPU will halt. In addition,
1293:Generated_Source\PSoC4/CyLib.c ****     * for PSoC 4100 BLE / PSoC 4200 BLE devices, the BLE sub-system will stop
1294:Generated_Source\PSoC4/CyLib.c ****     * functioning.
1295:Generated_Source\PSoC4/CyLib.c ****     *
1296:Generated_Source\PSoC4/CyLib.c ****     *******************************************************************************/
1297:Generated_Source\PSoC4/CyLib.c ****     void CySysClkEcoStop(void)
1298:Generated_Source\PSoC4/CyLib.c ****     {
1299:Generated_Source\PSoC4/CyLib.c ****         #if (CY_IP_WCO_BLESS)
1300:Generated_Source\PSoC4/CyLib.c ****             /* Disable the RF oscillator band gap */
1301:Generated_Source\PSoC4/CyLib.c ****             CY_SYS_XTAL_BLESS_RF_CONFIG_REG &= (uint32) ~CY_SYS_XTAL_BLESS_RF_CONFIG_RF_ENABLE;
1302:Generated_Source\PSoC4/CyLib.c **** 
1303:Generated_Source\PSoC4/CyLib.c ****             /* Disable the Crystal */
1304:Generated_Source\PSoC4/CyLib.c ****             CY_SYS_XTAL_BLERD_DBUS_REG &= (uint32) ~CY_SYS_XTAL_BLERD_DBUS_XTAL_ENABLE;
1305:Generated_Source\PSoC4/CyLib.c ****         #elif (CY_IP_ECO_BLESSV3)
1306:Generated_Source\PSoC4/CyLib.c ****             CY_SYS_BLESS_MT_CFG_REG &= ~(CY_SYS_BLESS_MT_CFG_DPSLP_ECO_ON  <<  CYFLD_BLE_BLESS_DPSL
1307:Generated_Source\PSoC4/CyLib.c ****         #else
1308:Generated_Source\PSoC4/CyLib.c ****             CY_SYS_CLK_ECO_CONFIG_REG &= (uint32) ~(CY_SYS_CLK_ECO_CONFIG_ENABLE | CY_SYS_CLK_ECO_C
1309:Generated_Source\PSoC4/CyLib.c ****         #endif /* (CY_IP_WCO_BLESS) */
1310:Generated_Source\PSoC4/CyLib.c ****     }
1311:Generated_Source\PSoC4/CyLib.c **** 
1312:Generated_Source\PSoC4/CyLib.c **** 
1313:Generated_Source\PSoC4/CyLib.c ****     /*******************************************************************************
1314:Generated_Source\PSoC4/CyLib.c ****     * Function Name: CySysClkEcoReadStatus
1315:Generated_Source\PSoC4/CyLib.c ****     ****************************************************************************//**
ARM GAS  C:\Users\Jesus\AppData\Local\Temp\cc071y2F.s 			page 29


1316:Generated_Source\PSoC4/CyLib.c ****     *
1317:Generated_Source\PSoC4/CyLib.c ****     * Reads the status bit for the megahertz crystal.
1318:Generated_Source\PSoC4/CyLib.c ****     *
1319:Generated_Source\PSoC4/CyLib.c ****     * For PSoC 4100 BLE / PSoC 4200 BLE devices, the status bit is the
1320:Generated_Source\PSoC4/CyLib.c ****     * XO_AMP_DETECT bit in FSM register.
1321:Generated_Source\PSoC4/CyLib.c ****     *
1322:Generated_Source\PSoC4/CyLib.c ****     * For PSoC 4200L / 4100S / 4500 with ECO devices, the error status bit is 
1323:Generated_Source\PSoC4/CyLib.c ****     * the WATCHDOG_ERROR bit in ECO_STATUS register.
1324:Generated_Source\PSoC4/CyLib.c ****     *
1325:Generated_Source\PSoC4/CyLib.c ****     * \return PSoC 4100 BLE/PSoC 4200 BLE: Non-zero indicates that ECO output
1326:Generated_Source\PSoC4/CyLib.c ****     * reached 50 ppm and is oscillating in valid range.
1327:Generated_Source\PSoC4/CyLib.c ****     *
1328:Generated_Source\PSoC4/CyLib.c ****     * \return PSoC 4200L / 4100S / 4500 with ECO: Non-zero indicates that ECO 
1329:Generated_Source\PSoC4/CyLib.c ****     * is running.
1330:Generated_Source\PSoC4/CyLib.c ****     *
1331:Generated_Source\PSoC4/CyLib.c ****     *******************************************************************************/
1332:Generated_Source\PSoC4/CyLib.c ****     uint32 CySysClkEcoReadStatus(void)
1333:Generated_Source\PSoC4/CyLib.c ****     {
1334:Generated_Source\PSoC4/CyLib.c ****         uint32 returnValue;
1335:Generated_Source\PSoC4/CyLib.c **** 
1336:Generated_Source\PSoC4/CyLib.c ****         #if (CY_IP_WCO_BLESS)
1337:Generated_Source\PSoC4/CyLib.c ****             returnValue = CY_SYS_XTAL_BLERD_FSM_REG & CY_SYS_XTAL_BLERD_FSM_XO_AMP_DETECT;
1338:Generated_Source\PSoC4/CyLib.c ****         #elif (CY_IP_ECO_BLESSV3)
1339:Generated_Source\PSoC4/CyLib.c ****             returnValue = (CY_SYS_BLESS_MT_STATUS_REG & CY_SYS_BLESS_MT_STATUS_CURR_STATE_MASK) >> 
1340:Generated_Source\PSoC4/CyLib.c **** 
1341:Generated_Source\PSoC4/CyLib.c ****             returnValue =  ((CY_SYS_BLESS_MT_STATUS_BLERD_IDLE == returnValue) || 
1342:Generated_Source\PSoC4/CyLib.c ****                             (CY_SYS_BLESS_MT_STATUS_SWITCH_EN  == returnValue) ||
1343:Generated_Source\PSoC4/CyLib.c ****                             (CY_SYS_BLESS_MT_STATUS_ACTIVE  ==  returnValue) ||
1344:Generated_Source\PSoC4/CyLib.c ****                             (CY_SYS_BLESS_MT_STATUS_ISOLATE == returnValue));
1345:Generated_Source\PSoC4/CyLib.c ****         #else
1346:Generated_Source\PSoC4/CyLib.c ****             returnValue = (0u != (CY_SYS_CLK_ECO_STATUS_REG & CY_SYS_CLK_ECO_STATUS_WATCHDOG_ERROR)
1347:Generated_Source\PSoC4/CyLib.c ****         #endif /* (CY_IP_WCO_BLESS) */
1348:Generated_Source\PSoC4/CyLib.c **** 
1349:Generated_Source\PSoC4/CyLib.c ****         return (returnValue);
1350:Generated_Source\PSoC4/CyLib.c ****     }
1351:Generated_Source\PSoC4/CyLib.c **** 
1352:Generated_Source\PSoC4/CyLib.c ****     #if (CY_IP_ECO_BLESS || CY_IP_ECO_BLESSV3)
1353:Generated_Source\PSoC4/CyLib.c ****         /*******************************************************************************
1354:Generated_Source\PSoC4/CyLib.c ****         * Function Name: CySysClkWriteEcoDiv
1355:Generated_Source\PSoC4/CyLib.c ****         ****************************************************************************//**
1356:Generated_Source\PSoC4/CyLib.c ****         *
1357:Generated_Source\PSoC4/CyLib.c ****         * Selects value for the ECO divider.
1358:Generated_Source\PSoC4/CyLib.c ****         *
1359:Generated_Source\PSoC4/CyLib.c ****         * The ECO must not be the HFCLK clock source when this function is called.
1360:Generated_Source\PSoC4/CyLib.c ****         * The HFCLK source can be changed to the other clock source by call to the
1361:Generated_Source\PSoC4/CyLib.c ****         * CySysClkWriteHfclkDirect() function. If the ECO sources the HFCLK this
1362:Generated_Source\PSoC4/CyLib.c ****         * function will not have any effect if compiler in release mode, and halt the
1363:Generated_Source\PSoC4/CyLib.c ****         * CPU when compiler in debug mode.
1364:Generated_Source\PSoC4/CyLib.c ****         *
1365:Generated_Source\PSoC4/CyLib.c ****         * If the SYSCLK clock frequency increases during the device operation, call
1366:Generated_Source\PSoC4/CyLib.c ****         * CySysFlashSetWaitCycles() with the appropriate parameter to adjust the number
1367:Generated_Source\PSoC4/CyLib.c ****         * of clock cycles the cache will wait before sampling data comes back from
1368:Generated_Source\PSoC4/CyLib.c ****         * Flash. If the SYSCLK clock frequency decreases, you can call
1369:Generated_Source\PSoC4/CyLib.c ****         * CySysFlashSetWaitCycles() to improve the CPU performance. See
1370:Generated_Source\PSoC4/CyLib.c ****         * CySysFlashSetWaitCycles() description for more information.
1371:Generated_Source\PSoC4/CyLib.c ****         *
1372:Generated_Source\PSoC4/CyLib.c ****         * \param divider Power of 2 divider selection.
ARM GAS  C:\Users\Jesus\AppData\Local\Temp\cc071y2F.s 			page 30


1373:Generated_Source\PSoC4/CyLib.c ****         * - \ref CY_SYS_CLK_ECO_DIV1
1374:Generated_Source\PSoC4/CyLib.c ****         * - \ref CY_SYS_CLK_ECO_DIV2
1375:Generated_Source\PSoC4/CyLib.c ****         * - \ref CY_SYS_CLK_ECO_DIV4
1376:Generated_Source\PSoC4/CyLib.c ****         * - \ref CY_SYS_CLK_ECO_DIV8
1377:Generated_Source\PSoC4/CyLib.c ****         *
1378:Generated_Source\PSoC4/CyLib.c ****         *******************************************************************************/
1379:Generated_Source\PSoC4/CyLib.c ****         void CySysClkWriteEcoDiv(uint32 divider)
1380:Generated_Source\PSoC4/CyLib.c ****         {
1381:Generated_Source\PSoC4/CyLib.c ****             uint8  interruptState;
1382:Generated_Source\PSoC4/CyLib.c **** 
1383:Generated_Source\PSoC4/CyLib.c ****             if (CY_SYS_CLK_HFCLK_ECO != (CY_SYS_CLK_SELECT_REG & CY_SYS_CLK_SELECT_DIRECT_SEL_MASK)
1384:Generated_Source\PSoC4/CyLib.c ****             {
1385:Generated_Source\PSoC4/CyLib.c ****                 interruptState = CyEnterCriticalSection();
1386:Generated_Source\PSoC4/CyLib.c **** 
1387:Generated_Source\PSoC4/CyLib.c ****                 CY_SYS_CLK_XTAL_CLK_DIV_CONFIG_REG =  (divider & CY_SYS_CLK_XTAL_CLK_DIV_MASK) |
1388:Generated_Source\PSoC4/CyLib.c ****                                                       (CY_SYS_CLK_XTAL_CLK_DIV_CONFIG_REG & ((uint3
1389:Generated_Source\PSoC4/CyLib.c **** 
1390:Generated_Source\PSoC4/CyLib.c ****                 CyExitCriticalSection(interruptState);
1391:Generated_Source\PSoC4/CyLib.c ****             }
1392:Generated_Source\PSoC4/CyLib.c ****             else
1393:Generated_Source\PSoC4/CyLib.c ****             {
1394:Generated_Source\PSoC4/CyLib.c ****                 /* Halt CPU in debug mode if ECO sources HFCLK */
1395:Generated_Source\PSoC4/CyLib.c ****                 CYASSERT(0u != 0u);
1396:Generated_Source\PSoC4/CyLib.c ****             }
1397:Generated_Source\PSoC4/CyLib.c ****         }
1398:Generated_Source\PSoC4/CyLib.c **** 
1399:Generated_Source\PSoC4/CyLib.c ****     #else
1400:Generated_Source\PSoC4/CyLib.c **** 
1401:Generated_Source\PSoC4/CyLib.c ****         /*******************************************************************************
1402:Generated_Source\PSoC4/CyLib.c ****         * Function Name: CySysClkConfigureEcoTrim
1403:Generated_Source\PSoC4/CyLib.c ****         ****************************************************************************//**
1404:Generated_Source\PSoC4/CyLib.c ****         *
1405:Generated_Source\PSoC4/CyLib.c ****         * Selects trim setting values for ECO. This API is available only for PSoC
1406:Generated_Source\PSoC4/CyLib.c ****         * 4200L / 4100S /4500 with ECO devices only.
1407:Generated_Source\PSoC4/CyLib.c ****         *
1408:Generated_Source\PSoC4/CyLib.c ****         * The following parameters can be trimmed for ECO. The affected registers are
1409:Generated_Source\PSoC4/CyLib.c ****         * ECO_TRIM0 and ECO_TRIM1.
1410:Generated_Source\PSoC4/CyLib.c ****         *
1411:Generated_Source\PSoC4/CyLib.c ****         * Watchdog trim - This bit field sets the error threshold below the steady
1412:Generated_Source\PSoC4/CyLib.c ****         * state amplitude level.
1413:Generated_Source\PSoC4/CyLib.c ****         *
1414:Generated_Source\PSoC4/CyLib.c ****         * Amplitude trim - This bit field is to set the crystal drive level when
1415:Generated_Source\PSoC4/CyLib.c ****         * ECO_CONFIG.AGC_EN = 1. WARNING: use care when setting this field because
1416:Generated_Source\PSoC4/CyLib.c ****         * driving a crystal beyond its rated limit can permanently damage the crystal.
1417:Generated_Source\PSoC4/CyLib.c ****         *
1418:Generated_Source\PSoC4/CyLib.c ****         * Filter frequency trim - This bit field sets LPF frequency trim and affects
1419:Generated_Source\PSoC4/CyLib.c ****         * the 3rd harmonic content.
1420:Generated_Source\PSoC4/CyLib.c ****         *
1421:Generated_Source\PSoC4/CyLib.c ****         * Feedback resistor trim - This bit field sets the feedback resistor trim and
1422:Generated_Source\PSoC4/CyLib.c ****         * impacts the oscillation amplitude.
1423:Generated_Source\PSoC4/CyLib.c ****         *
1424:Generated_Source\PSoC4/CyLib.c ****         * Amplifier gain trim - This bit field sets the amplifier gain trim and affects
1425:Generated_Source\PSoC4/CyLib.c ****         * the startup time of the crystal.
1426:Generated_Source\PSoC4/CyLib.c ****         *
1427:Generated_Source\PSoC4/CyLib.c ****         * Use care when setting the amplitude trim field because driving a crystal
1428:Generated_Source\PSoC4/CyLib.c ****         * beyond its rated limit can permanently damage the crystal.
1429:Generated_Source\PSoC4/CyLib.c ****         *
ARM GAS  C:\Users\Jesus\AppData\Local\Temp\cc071y2F.s 			page 31


1430:Generated_Source\PSoC4/CyLib.c ****         * \param wDTrim: Watchdog trim
1431:Generated_Source\PSoC4/CyLib.c ****         * - \ref CY_SYS_CLK_ECO_WDTRIM0      Error threshold is 0.05 V
1432:Generated_Source\PSoC4/CyLib.c ****         * - \ref CY_SYS_CLK_ECO_WDTRIM1      Error threshold is 0.10 V
1433:Generated_Source\PSoC4/CyLib.c ****         * - \ref CY_SYS_CLK_ECO_WDTRIM2      Error threshold is 0.15 V
1434:Generated_Source\PSoC4/CyLib.c ****         * - \ref CY_SYS_CLK_ECO_WDTRIM3      Error threshold is 0.20 V
1435:Generated_Source\PSoC4/CyLib.c ****         *
1436:Generated_Source\PSoC4/CyLib.c ****         * \param aTrim: Amplitude trim
1437:Generated_Source\PSoC4/CyLib.c ****         * - \ref CY_SYS_CLK_ECO_ATRIM0       Amplitude is 0.3 Vpp
1438:Generated_Source\PSoC4/CyLib.c ****         * - \ref CY_SYS_CLK_ECO_ATRIM1       Amplitude is 0.4 Vpp
1439:Generated_Source\PSoC4/CyLib.c ****         * - \ref CY_SYS_CLK_ECO_ATRIM2       Amplitude is 0.5 Vpp
1440:Generated_Source\PSoC4/CyLib.c ****         * - \ref CY_SYS_CLK_ECO_ATRIM3       Amplitude is 0.6 Vpp
1441:Generated_Source\PSoC4/CyLib.c ****         * - \ref CY_SYS_CLK_ECO_ATRIM4       Amplitude is 0.7 Vpp
1442:Generated_Source\PSoC4/CyLib.c ****         * - \ref CY_SYS_CLK_ECO_ATRIM5       Amplitude is 0.8 Vpp
1443:Generated_Source\PSoC4/CyLib.c ****         * - \ref CY_SYS_CLK_ECO_ATRIM6       Amplitude is 0.9 Vpp
1444:Generated_Source\PSoC4/CyLib.c ****         * - \ref CY_SYS_CLK_ECO_ATRIM7       Amplitude is 1.0 Vpp
1445:Generated_Source\PSoC4/CyLib.c ****         *
1446:Generated_Source\PSoC4/CyLib.c ****         * \param fTrim: Filter frequency trim
1447:Generated_Source\PSoC4/CyLib.c ****         * - \ref CY_SYS_CLK_ECO_FTRIM0       Crystal frequency > 30 MHz
1448:Generated_Source\PSoC4/CyLib.c ****         * - \ref CY_SYS_CLK_ECO_FTRIM1       24 MHz < Crystal frequency <= 30 MHz
1449:Generated_Source\PSoC4/CyLib.c ****         * - \ref CY_SYS_CLK_ECO_FTRIM2       17 MHz < Crystal frequency <= 24 MHz
1450:Generated_Source\PSoC4/CyLib.c ****         * - \ref CY_SYS_CLK_ECO_FTRIM3       Crystal frequency <= 17 MHz
1451:Generated_Source\PSoC4/CyLib.c ****         *
1452:Generated_Source\PSoC4/CyLib.c ****         * \param rTrim: Feedback resistor trim
1453:Generated_Source\PSoC4/CyLib.c ****         * - \ref CY_SYS_CLK_ECO_RTRIM0       Crystal frequency > 30 MHz
1454:Generated_Source\PSoC4/CyLib.c ****         * - \ref CY_SYS_CLK_ECO_RTRIM1       24 MHz < Crystal frequency <= 30 MHz
1455:Generated_Source\PSoC4/CyLib.c ****         * - \ref CY_SYS_CLK_ECO_RTRIM2       17 MHz < Crystal frequency <= 24 MHz
1456:Generated_Source\PSoC4/CyLib.c ****         * - \ref CY_SYS_CLK_ECO_RTRIM3       Crystal frequency <= 17 MHz
1457:Generated_Source\PSoC4/CyLib.c ****         *
1458:Generated_Source\PSoC4/CyLib.c ****         * \param gTrim: Amplifier gain trim. Calculate the minimum required gm
1459:Generated_Source\PSoC4/CyLib.c ****         * (trans-conductance value). Divide the calculated gm value by 4.5 to
1460:Generated_Source\PSoC4/CyLib.c ****         * obtain an integer value 'result'. For more information please refer
1461:Generated_Source\PSoC4/CyLib.c ****         * to the device TRM.
1462:Generated_Source\PSoC4/CyLib.c ****         * - \ref CY_SYS_CLK_ECO_GTRIM0       If result = 1
1463:Generated_Source\PSoC4/CyLib.c ****         * - \ref CY_SYS_CLK_ECO_GTRIM1       If result = 0
1464:Generated_Source\PSoC4/CyLib.c ****         * - \ref CY_SYS_CLK_ECO_GTRIM2       If result = 2
1465:Generated_Source\PSoC4/CyLib.c ****         * - \ref CY_SYS_CLK_ECO_GTRIM2       If result = 3
1466:Generated_Source\PSoC4/CyLib.c ****         *
1467:Generated_Source\PSoC4/CyLib.c ****         *******************************************************************************/
1468:Generated_Source\PSoC4/CyLib.c ****         void CySysClkConfigureEcoTrim(uint32 wDTrim, uint32 aTrim, uint32 fTrim, uint32 rTrim, uint
1469:Generated_Source\PSoC4/CyLib.c ****         {
1470:Generated_Source\PSoC4/CyLib.c ****             uint8  interruptState;
1471:Generated_Source\PSoC4/CyLib.c ****             uint32 regTmp;
1472:Generated_Source\PSoC4/CyLib.c **** 
1473:Generated_Source\PSoC4/CyLib.c ****             interruptState = CyEnterCriticalSection();
1474:Generated_Source\PSoC4/CyLib.c **** 
1475:Generated_Source\PSoC4/CyLib.c ****             regTmp  = CY_SYS_CLK_ECO_TRIM0_REG & ~(CY_SYS_CLK_ECO_TRIM0_WDTRIM_MASK | CY_SYS_CLK_EC
1476:Generated_Source\PSoC4/CyLib.c ****             regTmp |= ((uint32) (wDTrim << CY_SYS_CLK_ECO_TRIM0_WDTRIM_SHIFT) & CY_SYS_CLK_ECO_TRIM
1477:Generated_Source\PSoC4/CyLib.c ****             regTmp |= ((uint32) (aTrim << CY_SYS_CLK_ECO_TRIM0_ATRIM_SHIFT) & CY_SYS_CLK_ECO_TRIM0_
1478:Generated_Source\PSoC4/CyLib.c ****             CY_SYS_CLK_ECO_TRIM0_REG = regTmp;
1479:Generated_Source\PSoC4/CyLib.c **** 
1480:Generated_Source\PSoC4/CyLib.c ****             regTmp  = CY_SYS_CLK_ECO_TRIM1_REG & ~(CY_SYS_CLK_ECO_TRIM1_FTRIM_MASK |
1481:Generated_Source\PSoC4/CyLib.c ****                                                    CY_SYS_CLK_ECO_TRIM1_RTRIM_MASK |
1482:Generated_Source\PSoC4/CyLib.c ****                                                    CY_SYS_CLK_ECO_TRIM1_GTRIM_MASK);
1483:Generated_Source\PSoC4/CyLib.c ****             regTmp |= ((uint32) (fTrim << CY_SYS_CLK_ECO_TRIM1_FTRIM_SHIFT) & CY_SYS_CLK_ECO_TRIM1_
1484:Generated_Source\PSoC4/CyLib.c ****             regTmp |= ((uint32) (rTrim << CY_SYS_CLK_ECO_TRIM1_RTRIM_SHIFT) & CY_SYS_CLK_ECO_TRIM1_
1485:Generated_Source\PSoC4/CyLib.c ****             regTmp |= ((uint32) (gTrim << CY_SYS_CLK_ECO_TRIM1_GTRIM_SHIFT) & CY_SYS_CLK_ECO_TRIM1_
1486:Generated_Source\PSoC4/CyLib.c **** 
ARM GAS  C:\Users\Jesus\AppData\Local\Temp\cc071y2F.s 			page 32


1487:Generated_Source\PSoC4/CyLib.c ****             CY_SYS_CLK_ECO_TRIM1_REG = regTmp;
1488:Generated_Source\PSoC4/CyLib.c **** 
1489:Generated_Source\PSoC4/CyLib.c ****             CyExitCriticalSection(interruptState);
1490:Generated_Source\PSoC4/CyLib.c ****         }
1491:Generated_Source\PSoC4/CyLib.c **** 
1492:Generated_Source\PSoC4/CyLib.c **** 
1493:Generated_Source\PSoC4/CyLib.c ****         /*******************************************************************************
1494:Generated_Source\PSoC4/CyLib.c ****         * Function Name: CySysClkConfigureEcoDrive
1495:Generated_Source\PSoC4/CyLib.c ****         ****************************************************************************//**
1496:Generated_Source\PSoC4/CyLib.c ****         *
1497:Generated_Source\PSoC4/CyLib.c ****         * Selects trim setting values for ECO based on crystal parameters. Use care
1498:Generated_Source\PSoC4/CyLib.c ****         * when setting the driveLevel parameter because driving a crystal beyond its
1499:Generated_Source\PSoC4/CyLib.c ****         * rated limit can permanently damage the crystal.
1500:Generated_Source\PSoC4/CyLib.c ****         *
1501:Generated_Source\PSoC4/CyLib.c ****         * This API is available only for PSoC 4200L / 4100S / 4500 with ECO 
1502:Generated_Source\PSoC4/CyLib.c ****         * devices only.
1503:Generated_Source\PSoC4/CyLib.c ****         *
1504:Generated_Source\PSoC4/CyLib.c ****         * \param freq Frequency of the crystal in kHz.
1505:Generated_Source\PSoC4/CyLib.c ****         * \param cLoad Crystal load capacitance in pF.
1506:Generated_Source\PSoC4/CyLib.c ****         * \param esr Equivalent series resistance of the crystal in ohm.
1507:Generated_Source\PSoC4/CyLib.c ****         *  maxAmplitude: maximum amplitude level in mV. Calculate as
1508:Generated_Source\PSoC4/CyLib.c ****         *  ((sqrt(driveLevel in uW / 2 / esr))/(3.14 * freq * cLoad)) * 10^9.
1509:Generated_Source\PSoC4/CyLib.c ****         *
1510:Generated_Source\PSoC4/CyLib.c ****         *  The Automatic Gain Control (AGC) is disabled when the specified maximum
1511:Generated_Source\PSoC4/CyLib.c ****         *  amplitude level equals or above 2. In this case the amplitude is not
1512:Generated_Source\PSoC4/CyLib.c ****         *  explicitly controlled and will grow until it saturates to the supply rail
1513:Generated_Source\PSoC4/CyLib.c ****         *  (1.8V nom). WARNING: use care when disabling AGC because driving a crystal
1514:Generated_Source\PSoC4/CyLib.c ****         *  beyond its rated limit can permanently damage the crystal.
1515:Generated_Source\PSoC4/CyLib.c ****         *
1516:Generated_Source\PSoC4/CyLib.c ****         * \return \ref CYRET_SUCCESS ECO configuration completed successfully.
1517:Generated_Source\PSoC4/CyLib.c ****         * \return \ref CYRET_BAD_PARAM One or more invalid parameters.
1518:Generated_Source\PSoC4/CyLib.c ****         *
1519:Generated_Source\PSoC4/CyLib.c ****         *******************************************************************************/
1520:Generated_Source\PSoC4/CyLib.c ****         cystatus CySysClkConfigureEcoDrive(uint32 freq, uint32 cLoad, uint32 esr, uint32 maxAmplitu
1521:Generated_Source\PSoC4/CyLib.c ****         {
1522:Generated_Source\PSoC4/CyLib.c ****             cystatus returnStatus = CYRET_SUCCESS;
1523:Generated_Source\PSoC4/CyLib.c **** 
1524:Generated_Source\PSoC4/CyLib.c ****             uint32 wDTrim;
1525:Generated_Source\PSoC4/CyLib.c ****             uint32 aTrim;
1526:Generated_Source\PSoC4/CyLib.c ****             uint32 fTrim;
1527:Generated_Source\PSoC4/CyLib.c ****             uint32 rTrim;
1528:Generated_Source\PSoC4/CyLib.c ****             uint32 gTrim;
1529:Generated_Source\PSoC4/CyLib.c **** 
1530:Generated_Source\PSoC4/CyLib.c ****             uint32 gmMin;
1531:Generated_Source\PSoC4/CyLib.c **** 
1532:Generated_Source\PSoC4/CyLib.c **** 
1533:Generated_Source\PSoC4/CyLib.c ****             if ((maxAmplitude < CY_SYS_CLK_ECO_MAX_AMPL_MIN_mV) ||
1534:Generated_Source\PSoC4/CyLib.c ****                 (freq < CY_SYS_CLK_ECO_FREQ_KHZ_MIN) || (freq > CY_SYS_CLK_ECO_FREQ_KHZ_MAX))
1535:Generated_Source\PSoC4/CyLib.c ****             {
1536:Generated_Source\PSoC4/CyLib.c ****                 returnStatus = CYRET_BAD_PARAM;
1537:Generated_Source\PSoC4/CyLib.c ****             }
1538:Generated_Source\PSoC4/CyLib.c ****             else
1539:Generated_Source\PSoC4/CyLib.c ****             {
1540:Generated_Source\PSoC4/CyLib.c ****                 /* Calculate amplitude trim */
1541:Generated_Source\PSoC4/CyLib.c ****                 aTrim = (maxAmplitude < CY_SYS_CLK_ECO_TRIM_BOUNDARY) ? ((maxAmplitude/100u) - 4u) 
1542:Generated_Source\PSoC4/CyLib.c **** 
1543:Generated_Source\PSoC4/CyLib.c ****                 if (maxAmplitude < CY_SYS_CLK_ECO_AMPL_FOR_ATRIM0)
ARM GAS  C:\Users\Jesus\AppData\Local\Temp\cc071y2F.s 			page 33


1544:Generated_Source\PSoC4/CyLib.c ****                 {
1545:Generated_Source\PSoC4/CyLib.c ****                     aTrim = CY_SYS_CLK_ECO_ATRIM0;
1546:Generated_Source\PSoC4/CyLib.c ****                 }
1547:Generated_Source\PSoC4/CyLib.c ****                 else if (maxAmplitude < CY_SYS_CLK_ECO_AMPL_FOR_ATRIM1)
1548:Generated_Source\PSoC4/CyLib.c ****                 {
1549:Generated_Source\PSoC4/CyLib.c ****                     aTrim = CY_SYS_CLK_ECO_ATRIM1;
1550:Generated_Source\PSoC4/CyLib.c ****                 }
1551:Generated_Source\PSoC4/CyLib.c ****                 else if (maxAmplitude < CY_SYS_CLK_ECO_AMPL_FOR_ATRIM2)
1552:Generated_Source\PSoC4/CyLib.c ****                 {
1553:Generated_Source\PSoC4/CyLib.c ****                     aTrim = CY_SYS_CLK_ECO_ATRIM2;
1554:Generated_Source\PSoC4/CyLib.c ****                 }
1555:Generated_Source\PSoC4/CyLib.c ****                 else if (maxAmplitude < CY_SYS_CLK_ECO_AMPL_FOR_ATRIM3)
1556:Generated_Source\PSoC4/CyLib.c ****                 {
1557:Generated_Source\PSoC4/CyLib.c ****                     aTrim = CY_SYS_CLK_ECO_ATRIM3;
1558:Generated_Source\PSoC4/CyLib.c ****                 }
1559:Generated_Source\PSoC4/CyLib.c ****                 else if (maxAmplitude < CY_SYS_CLK_ECO_AMPL_FOR_ATRIM4)
1560:Generated_Source\PSoC4/CyLib.c ****                 {
1561:Generated_Source\PSoC4/CyLib.c ****                     aTrim = CY_SYS_CLK_ECO_ATRIM4;
1562:Generated_Source\PSoC4/CyLib.c ****                 }
1563:Generated_Source\PSoC4/CyLib.c ****                 else if (maxAmplitude < CY_SYS_CLK_ECO_AMPL_FOR_ATRIM5)
1564:Generated_Source\PSoC4/CyLib.c ****                 {
1565:Generated_Source\PSoC4/CyLib.c ****                     aTrim = CY_SYS_CLK_ECO_ATRIM5;
1566:Generated_Source\PSoC4/CyLib.c ****                 }
1567:Generated_Source\PSoC4/CyLib.c ****                 else if (maxAmplitude < CY_SYS_CLK_ECO_AMPL_FOR_ATRIM6)
1568:Generated_Source\PSoC4/CyLib.c ****                 {
1569:Generated_Source\PSoC4/CyLib.c ****                     aTrim = CY_SYS_CLK_ECO_ATRIM6;
1570:Generated_Source\PSoC4/CyLib.c ****                 }
1571:Generated_Source\PSoC4/CyLib.c ****                 else
1572:Generated_Source\PSoC4/CyLib.c ****                 {
1573:Generated_Source\PSoC4/CyLib.c ****                     aTrim = CY_SYS_CLK_ECO_ATRIM7;
1574:Generated_Source\PSoC4/CyLib.c ****                 }
1575:Generated_Source\PSoC4/CyLib.c **** 
1576:Generated_Source\PSoC4/CyLib.c ****                 /* Calculate Watchdog trim. */
1577:Generated_Source\PSoC4/CyLib.c ****                 wDTrim = (maxAmplitude < CY_SYS_CLK_ECO_TRIM_BOUNDARY) ? ((maxAmplitude/200u) - 2u)
1578:Generated_Source\PSoC4/CyLib.c **** 
1579:Generated_Source\PSoC4/CyLib.c ****                 /* Calculate amplifier gain trim. */
1580:Generated_Source\PSoC4/CyLib.c ****                 gmMin = (uint32) (((((CY_SYS_CLK_ECO_GMMIN_COEFFICIENT * freq * cLoad) / 1000) * ((
1581:Generated_Source\PSoC4/CyLib.c ****                 if (gmMin > 3u)
1582:Generated_Source\PSoC4/CyLib.c ****                 {
1583:Generated_Source\PSoC4/CyLib.c ****                     returnStatus = CYRET_BAD_PARAM;
1584:Generated_Source\PSoC4/CyLib.c ****                     gTrim = 0u;
1585:Generated_Source\PSoC4/CyLib.c ****                 }
1586:Generated_Source\PSoC4/CyLib.c ****                 else if (gmMin > 1u)
1587:Generated_Source\PSoC4/CyLib.c ****                 {
1588:Generated_Source\PSoC4/CyLib.c ****                     gTrim = gmMin;
1589:Generated_Source\PSoC4/CyLib.c ****                 }
1590:Generated_Source\PSoC4/CyLib.c ****                 else
1591:Generated_Source\PSoC4/CyLib.c ****                 {
1592:Generated_Source\PSoC4/CyLib.c ****                     gTrim = (gmMin == 1u) ? 0u : 1u;
1593:Generated_Source\PSoC4/CyLib.c ****                 }
1594:Generated_Source\PSoC4/CyLib.c **** 
1595:Generated_Source\PSoC4/CyLib.c ****                 /* Calculate feedback resistor trim */
1596:Generated_Source\PSoC4/CyLib.c ****                 if (freq > CY_SYS_CLK_ECO_FREQ_FOR_FTRIM0)
1597:Generated_Source\PSoC4/CyLib.c ****                 {
1598:Generated_Source\PSoC4/CyLib.c ****                     rTrim = CY_SYS_CLK_ECO_FTRIM0;
1599:Generated_Source\PSoC4/CyLib.c ****                 }
1600:Generated_Source\PSoC4/CyLib.c ****                 else if (freq > CY_SYS_CLK_ECO_FREQ_FOR_FTRIM1)
ARM GAS  C:\Users\Jesus\AppData\Local\Temp\cc071y2F.s 			page 34


1601:Generated_Source\PSoC4/CyLib.c ****                 {
1602:Generated_Source\PSoC4/CyLib.c ****                     rTrim = CY_SYS_CLK_ECO_FTRIM1;
1603:Generated_Source\PSoC4/CyLib.c ****                 }
1604:Generated_Source\PSoC4/CyLib.c ****                 else if (freq > CY_SYS_CLK_ECO_FREQ_FOR_FTRIM2)
1605:Generated_Source\PSoC4/CyLib.c ****                 {
1606:Generated_Source\PSoC4/CyLib.c ****                     rTrim = CY_SYS_CLK_ECO_FTRIM2;
1607:Generated_Source\PSoC4/CyLib.c ****                 }
1608:Generated_Source\PSoC4/CyLib.c ****                 else
1609:Generated_Source\PSoC4/CyLib.c ****                 {
1610:Generated_Source\PSoC4/CyLib.c ****                     rTrim = CY_SYS_CLK_ECO_FTRIM3;
1611:Generated_Source\PSoC4/CyLib.c ****                 }
1612:Generated_Source\PSoC4/CyLib.c **** 
1613:Generated_Source\PSoC4/CyLib.c ****                 /* Calculate filter frequency trim */
1614:Generated_Source\PSoC4/CyLib.c ****                 fTrim = rTrim;
1615:Generated_Source\PSoC4/CyLib.c **** 
1616:Generated_Source\PSoC4/CyLib.c ****                 CySysClkConfigureEcoTrim(wDTrim, aTrim, fTrim, rTrim, gTrim);
1617:Generated_Source\PSoC4/CyLib.c **** 
1618:Generated_Source\PSoC4/CyLib.c ****                 /* Automatic Gain Control (AGC) enable */
1619:Generated_Source\PSoC4/CyLib.c ****                 if (maxAmplitude < 2u)
1620:Generated_Source\PSoC4/CyLib.c ****                 {
1621:Generated_Source\PSoC4/CyLib.c ****                     /* The oscillation amplitude is controlled to the level selected by amplitude t
1622:Generated_Source\PSoC4/CyLib.c ****                     CY_SYS_CLK_ECO_CONFIG_REG |= CY_SYS_CLK_ECO_CONFIG_AGC_EN;
1623:Generated_Source\PSoC4/CyLib.c ****                 }
1624:Generated_Source\PSoC4/CyLib.c ****                 else
1625:Generated_Source\PSoC4/CyLib.c ****                 {
1626:Generated_Source\PSoC4/CyLib.c ****                     /* The amplitude is not explicitly controlled and will grow until it saturates 
1627:Generated_Source\PSoC4/CyLib.c ****                     * supply rail (1.8V nom).
1628:Generated_Source\PSoC4/CyLib.c ****                     */
1629:Generated_Source\PSoC4/CyLib.c ****                     CY_SYS_CLK_ECO_CONFIG_REG &= (uint32) ~CY_SYS_CLK_ECO_CONFIG_AGC_EN;
1630:Generated_Source\PSoC4/CyLib.c ****                 }
1631:Generated_Source\PSoC4/CyLib.c ****             }
1632:Generated_Source\PSoC4/CyLib.c **** 
1633:Generated_Source\PSoC4/CyLib.c ****             return (returnStatus);
1634:Generated_Source\PSoC4/CyLib.c ****         }
1635:Generated_Source\PSoC4/CyLib.c **** 
1636:Generated_Source\PSoC4/CyLib.c ****     #endif /* CY_IP_ECO_BLESS */
1637:Generated_Source\PSoC4/CyLib.c **** 
1638:Generated_Source\PSoC4/CyLib.c **** #endif /* (CY_IP_ECO) */
1639:Generated_Source\PSoC4/CyLib.c **** 
1640:Generated_Source\PSoC4/CyLib.c **** 
1641:Generated_Source\PSoC4/CyLib.c **** #if (CY_IP_PLL)
1642:Generated_Source\PSoC4/CyLib.c ****     /*******************************************************************************
1643:Generated_Source\PSoC4/CyLib.c ****     * Function Name: CySysClkPllStart
1644:Generated_Source\PSoC4/CyLib.c ****     ****************************************************************************//**
1645:Generated_Source\PSoC4/CyLib.c ****     *
1646:Generated_Source\PSoC4/CyLib.c ****     * Enables the PLL. Optionally waits for it to become stable. Waits at least
1647:Generated_Source\PSoC4/CyLib.c ****     * 250 us or until it is detected that the PLL is stable.
1648:Generated_Source\PSoC4/CyLib.c ****     *
1649:Generated_Source\PSoC4/CyLib.c ****     * Clears the unlock occurred status bit by calling CySysClkPllGetUnlockStatus(),
1650:Generated_Source\PSoC4/CyLib.c ****     * once the PLL is locked if the wait parameter is 1).
1651:Generated_Source\PSoC4/CyLib.c ****     *
1652:Generated_Source\PSoC4/CyLib.c ****     * This API is available only for PSoC 4200L / 4100S / 4500 with PLL devices.
1653:Generated_Source\PSoC4/CyLib.c ****     *
1654:Generated_Source\PSoC4/CyLib.c ****     * \param PLL:
1655:Generated_Source\PSoC4/CyLib.c ****     * 0   PLL#0
1656:Generated_Source\PSoC4/CyLib.c ****     * 1   PLL#1 (available only for PSoC 4200L)
1657:Generated_Source\PSoC4/CyLib.c ****     *
ARM GAS  C:\Users\Jesus\AppData\Local\Temp\cc071y2F.s 			page 35


1658:Generated_Source\PSoC4/CyLib.c ****     * \param wait:
1659:Generated_Source\PSoC4/CyLib.c ****     * 0 - Return immediately after configuration.
1660:Generated_Source\PSoC4/CyLib.c ****     * 1 - Wait for PLL lock or timeout. This API shall use the CyDelayUs() to
1661:Generated_Source\PSoC4/CyLib.c ****     * implement the timeout feature.
1662:Generated_Source\PSoC4/CyLib.c ****     *
1663:Generated_Source\PSoC4/CyLib.c ****     * \return CYRET_SUCCESS Completed successfully.
1664:Generated_Source\PSoC4/CyLib.c ****     * \return CYRET_TIMEOUT The timeout occurred without detecting a stable clock.
1665:Generated_Source\PSoC4/CyLib.c ****     * If the input source of the clock is jittery, then the lock indication may
1666:Generated_Source\PSoC4/CyLib.c ****     * not occur. However, after the timeout has expired, the generated PLL clock can
1667:Generated_Source\PSoC4/CyLib.c ****     * still be used.
1668:Generated_Source\PSoC4/CyLib.c ****     * \return CYRET_BAD_PARAM - Either the PLL or wait parameter is invalid.
1669:Generated_Source\PSoC4/CyLib.c ****     *
1670:Generated_Source\PSoC4/CyLib.c ****     *******************************************************************************/
1671:Generated_Source\PSoC4/CyLib.c ****     cystatus CySysClkPllStart(uint32 pll, uint32 wait)
1672:Generated_Source\PSoC4/CyLib.c ****     {
1673:Generated_Source\PSoC4/CyLib.c ****         uint32 counts = CY_SYS_CLK_PLL_MAX_STARTUP_US;
1674:Generated_Source\PSoC4/CyLib.c ****         uint8  interruptState;
1675:Generated_Source\PSoC4/CyLib.c ****         cystatus returnStatus = CYRET_SUCCESS;
1676:Generated_Source\PSoC4/CyLib.c **** 
1677:Generated_Source\PSoC4/CyLib.c ****         if((pll < CY_IP_PLL_NR) && (wait <= 1u))
1678:Generated_Source\PSoC4/CyLib.c ****         {
1679:Generated_Source\PSoC4/CyLib.c ****             interruptState = CyEnterCriticalSection();
1680:Generated_Source\PSoC4/CyLib.c **** 
1681:Generated_Source\PSoC4/CyLib.c ****             /* Isolate PLL outputs */
1682:Generated_Source\PSoC4/CyLib.c ****             CY_SYS_CLK_PLL_BASE.pll[pll].config &= (uint32) ~CY_SYS_CLK_PLL_CONFIG_ISOLATE;
1683:Generated_Source\PSoC4/CyLib.c **** 
1684:Generated_Source\PSoC4/CyLib.c ****             /* Enable PLL */
1685:Generated_Source\PSoC4/CyLib.c ****             CY_SYS_CLK_PLL_BASE.pll[pll].config |= CY_SYS_CLK_PLL_CONFIG_ENABLE;
1686:Generated_Source\PSoC4/CyLib.c **** 
1687:Generated_Source\PSoC4/CyLib.c ****             CyExitCriticalSection(interruptState);
1688:Generated_Source\PSoC4/CyLib.c **** 
1689:Generated_Source\PSoC4/CyLib.c ****             /* De-isolate >= CY_SYS_CLK_PLL_MIN_STARTUP_US after PLL enabled */
1690:Generated_Source\PSoC4/CyLib.c ****             CyDelayUs(CY_SYS_CLK_PLL_MIN_STARTUP_US);
1691:Generated_Source\PSoC4/CyLib.c ****             interruptState = CyEnterCriticalSection();
1692:Generated_Source\PSoC4/CyLib.c ****             CY_SYS_CLK_PLL_BASE.pll[pll].config |= CY_SYS_CLK_PLL_CONFIG_ISOLATE;
1693:Generated_Source\PSoC4/CyLib.c ****             CyExitCriticalSection(interruptState);
1694:Generated_Source\PSoC4/CyLib.c **** 
1695:Generated_Source\PSoC4/CyLib.c ****             if(wait != 0u)
1696:Generated_Source\PSoC4/CyLib.c ****             {
1697:Generated_Source\PSoC4/CyLib.c ****                 returnStatus = CYRET_TIMEOUT;
1698:Generated_Source\PSoC4/CyLib.c **** 
1699:Generated_Source\PSoC4/CyLib.c ****                 while(0u != counts)
1700:Generated_Source\PSoC4/CyLib.c ****                 {
1701:Generated_Source\PSoC4/CyLib.c **** 
1702:Generated_Source\PSoC4/CyLib.c ****                     if(0u != CySysClkPllGetLockStatus(pll))
1703:Generated_Source\PSoC4/CyLib.c ****                     {
1704:Generated_Source\PSoC4/CyLib.c ****                         returnStatus = CYRET_SUCCESS;
1705:Generated_Source\PSoC4/CyLib.c ****                         (void) CySysClkPllGetUnlockStatus(pll);
1706:Generated_Source\PSoC4/CyLib.c ****                         break;
1707:Generated_Source\PSoC4/CyLib.c ****                     }
1708:Generated_Source\PSoC4/CyLib.c **** 
1709:Generated_Source\PSoC4/CyLib.c ****                     CyDelayUs(1u);
1710:Generated_Source\PSoC4/CyLib.c ****                     counts--;
1711:Generated_Source\PSoC4/CyLib.c ****                 }
1712:Generated_Source\PSoC4/CyLib.c ****             }
1713:Generated_Source\PSoC4/CyLib.c ****         }
1714:Generated_Source\PSoC4/CyLib.c ****         else
ARM GAS  C:\Users\Jesus\AppData\Local\Temp\cc071y2F.s 			page 36


1715:Generated_Source\PSoC4/CyLib.c ****         {
1716:Generated_Source\PSoC4/CyLib.c ****             returnStatus = CYRET_BAD_PARAM;
1717:Generated_Source\PSoC4/CyLib.c ****         }
1718:Generated_Source\PSoC4/CyLib.c **** 
1719:Generated_Source\PSoC4/CyLib.c ****         return (returnStatus);
1720:Generated_Source\PSoC4/CyLib.c ****     }
1721:Generated_Source\PSoC4/CyLib.c **** 
1722:Generated_Source\PSoC4/CyLib.c **** 
1723:Generated_Source\PSoC4/CyLib.c ****     /*******************************************************************************
1724:Generated_Source\PSoC4/CyLib.c ****     * Function Name: CySysClkPllGetLockStatus
1725:Generated_Source\PSoC4/CyLib.c ****     ****************************************************************************//**
1726:Generated_Source\PSoC4/CyLib.c ****     *
1727:Generated_Source\PSoC4/CyLib.c ****     * Returns non-zero if the output of the specified PLL output is locked.
1728:Generated_Source\PSoC4/CyLib.c ****     *
1729:Generated_Source\PSoC4/CyLib.c ****     * This API is available only for PSoC 4200L / 4100S / 4500 with PLL devices.
1730:Generated_Source\PSoC4/CyLib.c ****     *
1731:Generated_Source\PSoC4/CyLib.c ****     * PLL:
1732:Generated_Source\PSoC4/CyLib.c ****     *  0   PLL#0
1733:Generated_Source\PSoC4/CyLib.c ****     *  1   PLL#1 (available only for PSoC 4200L)
1734:Generated_Source\PSoC4/CyLib.c ****     *
1735:Generated_Source\PSoC4/CyLib.c ****     * \return A non-zero value when the specified PLL is locked.
1736:Generated_Source\PSoC4/CyLib.c ****     *
1737:Generated_Source\PSoC4/CyLib.c ****     *******************************************************************************/
1738:Generated_Source\PSoC4/CyLib.c ****     uint32 CySysClkPllGetLockStatus(uint32 pll)
1739:Generated_Source\PSoC4/CyLib.c ****     {
1740:Generated_Source\PSoC4/CyLib.c ****         uint8  interruptState;
1741:Generated_Source\PSoC4/CyLib.c ****         uint32 returnStatus;
1742:Generated_Source\PSoC4/CyLib.c **** 
1743:Generated_Source\PSoC4/CyLib.c ****         CYASSERT(pll < CY_IP_PLL_NR);
1744:Generated_Source\PSoC4/CyLib.c **** 
1745:Generated_Source\PSoC4/CyLib.c ****         interruptState = CyEnterCriticalSection();
1746:Generated_Source\PSoC4/CyLib.c **** 
1747:Generated_Source\PSoC4/CyLib.c ****         /* PLL is locked if reported so for two consecutive read. */
1748:Generated_Source\PSoC4/CyLib.c ****         returnStatus = CY_SYS_CLK_PLL_BASE.pll[pll].status & CY_SYS_CLK_PLL_STATUS_LOCKED;
1749:Generated_Source\PSoC4/CyLib.c ****         if(0u != returnStatus)
1750:Generated_Source\PSoC4/CyLib.c ****         {
1751:Generated_Source\PSoC4/CyLib.c ****             returnStatus = CY_SYS_CLK_PLL_BASE.pll[pll].status & CY_SYS_CLK_PLL_STATUS_LOCKED;
1752:Generated_Source\PSoC4/CyLib.c ****         }
1753:Generated_Source\PSoC4/CyLib.c **** 
1754:Generated_Source\PSoC4/CyLib.c ****         CyExitCriticalSection(interruptState);
1755:Generated_Source\PSoC4/CyLib.c **** 
1756:Generated_Source\PSoC4/CyLib.c ****         return (returnStatus);
1757:Generated_Source\PSoC4/CyLib.c ****     }
1758:Generated_Source\PSoC4/CyLib.c **** 
1759:Generated_Source\PSoC4/CyLib.c ****     /*******************************************************************************
1760:Generated_Source\PSoC4/CyLib.c ****     * Function Name: CySysClkPllStop
1761:Generated_Source\PSoC4/CyLib.c ****     ****************************************************************************//**
1762:Generated_Source\PSoC4/CyLib.c ****     *
1763:Generated_Source\PSoC4/CyLib.c ****     * Disables the PLL.
1764:Generated_Source\PSoC4/CyLib.c ****     *
1765:Generated_Source\PSoC4/CyLib.c ****     * Ensures that either PLL is not the source of HFCLK before it is disabled,
1766:Generated_Source\PSoC4/CyLib.c ****     * otherwise, the CPU will halt.
1767:Generated_Source\PSoC4/CyLib.c ****     *
1768:Generated_Source\PSoC4/CyLib.c ****     * This API is available only for PSoC 4200L / 4100S / 4500 with PLL devices.
1769:Generated_Source\PSoC4/CyLib.c ****     *
1770:Generated_Source\PSoC4/CyLib.c ****     * PLL:
1771:Generated_Source\PSoC4/CyLib.c ****     *  0   PLL#0
ARM GAS  C:\Users\Jesus\AppData\Local\Temp\cc071y2F.s 			page 37


1772:Generated_Source\PSoC4/CyLib.c ****     *  1   PLL#1 (available only for PSoC 4200L)
1773:Generated_Source\PSoC4/CyLib.c ****     *
1774:Generated_Source\PSoC4/CyLib.c ****     *******************************************************************************/
1775:Generated_Source\PSoC4/CyLib.c ****     void CySysClkPllStop(uint32 pll)
1776:Generated_Source\PSoC4/CyLib.c ****     {
1777:Generated_Source\PSoC4/CyLib.c ****         uint8  interruptState;
1778:Generated_Source\PSoC4/CyLib.c **** 
1779:Generated_Source\PSoC4/CyLib.c ****         if (pll < CY_IP_PLL_NR)
1780:Generated_Source\PSoC4/CyLib.c ****         {
1781:Generated_Source\PSoC4/CyLib.c ****             interruptState = CyEnterCriticalSection();
1782:Generated_Source\PSoC4/CyLib.c ****             CY_SYS_CLK_PLL_BASE.pll[pll].config &= (uint32) ~(CY_SYS_CLK_PLL_CONFIG_ISOLATE | CY_SY
1783:Generated_Source\PSoC4/CyLib.c ****             CyExitCriticalSection(interruptState);
1784:Generated_Source\PSoC4/CyLib.c ****         }
1785:Generated_Source\PSoC4/CyLib.c ****     }
1786:Generated_Source\PSoC4/CyLib.c **** 
1787:Generated_Source\PSoC4/CyLib.c **** 
1788:Generated_Source\PSoC4/CyLib.c ****     /*******************************************************************************
1789:Generated_Source\PSoC4/CyLib.c ****     * Function Name: CySysClkPllSetPQ
1790:Generated_Source\PSoC4/CyLib.c ****     ****************************************************************************//**
1791:Generated_Source\PSoC4/CyLib.c ****     *
1792:Generated_Source\PSoC4/CyLib.c ****     * Sets feedback (P) and reference the (Q) divider value. This API also sets the
1793:Generated_Source\PSoC4/CyLib.c ****     * programmable charge pump current value. Note that the PLL has to be disabled
1794:Generated_Source\PSoC4/CyLib.c ****     * before calling this API. If this function is called while any PLL is sourcing,
1795:Generated_Source\PSoC4/CyLib.c ****     * the SYSCLK will return an error.
1796:Generated_Source\PSoC4/CyLib.c ****     *
1797:Generated_Source\PSoC4/CyLib.c ****     * The PLL must not be the system clock source when calling this function. The
1798:Generated_Source\PSoC4/CyLib.c ****     * PLL output will glitch during this function call.
1799:Generated_Source\PSoC4/CyLib.c ****     *
1800:Generated_Source\PSoC4/CyLib.c ****     * This API is available only for PSoC 4200L / 4100S / 4500 with PLL devices.
1801:Generated_Source\PSoC4/CyLib.c ****     *
1802:Generated_Source\PSoC4/CyLib.c ****     * \param PLL:
1803:Generated_Source\PSoC4/CyLib.c ****     *  0   PLL#0
1804:Generated_Source\PSoC4/CyLib.c ****     *  1   PLL#1 (available only for PSoC 4200L)
1805:Generated_Source\PSoC4/CyLib.c ****     *
1806:Generated_Source\PSoC4/CyLib.c ****     * \param feedback The P divider. Range 4 - 259. Control bits for the feedback
1807:Generated_Source\PSoC4/CyLib.c ****     * divider.
1808:Generated_Source\PSoC4/CyLib.c ****     *
1809:Generated_Source\PSoC4/CyLib.c ****     * \param reference The Q divider. Range 1 - 64. Divide by the reference.
1810:Generated_Source\PSoC4/CyLib.c ****     *
1811:Generated_Source\PSoC4/CyLib.c ****     * \param current Charge the pump current in uA. The 2 uA for output frequencies
1812:Generated_Source\PSoC4/CyLib.c ****     * of 67 MHz or less, and 3 uA for higher output frequencies. The default
1813:Generated_Source\PSoC4/CyLib.c ****     * value is 2 uA.
1814:Generated_Source\PSoC4/CyLib.c ****     *
1815:Generated_Source\PSoC4/CyLib.c ****     * \return CYRET_SUCCESS Completed successfully.
1816:Generated_Source\PSoC4/CyLib.c ****     * \return CYRET_BAD_PARAM The parameters are out of range or the specified PLL
1817:Generated_Source\PSoC4/CyLib.c ****     * sources the system clock.
1818:Generated_Source\PSoC4/CyLib.c ****     *
1819:Generated_Source\PSoC4/CyLib.c ****     *******************************************************************************/
1820:Generated_Source\PSoC4/CyLib.c ****     cystatus CySysClkPllSetPQ(uint32 pll, uint32 feedback, uint32 reference, uint32 current)
1821:Generated_Source\PSoC4/CyLib.c ****     {
1822:Generated_Source\PSoC4/CyLib.c ****         uint32   regTmp;
1823:Generated_Source\PSoC4/CyLib.c ****         cystatus tmp;
1824:Generated_Source\PSoC4/CyLib.c ****         uint8    interruptState;
1825:Generated_Source\PSoC4/CyLib.c ****         cystatus returnStatus = CYRET_BAD_PARAM;
1826:Generated_Source\PSoC4/CyLib.c **** 
1827:Generated_Source\PSoC4/CyLib.c ****         interruptState = CyEnterCriticalSection();
1828:Generated_Source\PSoC4/CyLib.c **** 
ARM GAS  C:\Users\Jesus\AppData\Local\Temp\cc071y2F.s 			page 38


1829:Generated_Source\PSoC4/CyLib.c ****         tmp = CySysClkPllConfigChangeAllowed(pll);
1830:Generated_Source\PSoC4/CyLib.c **** 
1831:Generated_Source\PSoC4/CyLib.c ****         if ((pll < CY_IP_PLL_NR) &&
1832:Generated_Source\PSoC4/CyLib.c ****             (feedback  >= CY_SYS_CLK_PLL_CONFIG_FEEDBACK_DIV_MIN)  && (feedback  <= CY_SYS_CLK_PLL_
1833:Generated_Source\PSoC4/CyLib.c ****             (reference >= CY_SYS_CLK_PLL_CONFIG_REFERENCE_DIV_MIN) && (reference <= CY_SYS_CLK_PLL_
1834:Generated_Source\PSoC4/CyLib.c ****             (current   >= CY_SYS_CLK_PLL_CONFIG_ICP_SEL_MIN )      && (current   <= CY_SYS_CLK_PLL_
1835:Generated_Source\PSoC4/CyLib.c ****             (CYRET_SUCCESS == tmp))
1836:Generated_Source\PSoC4/CyLib.c ****         {
1837:Generated_Source\PSoC4/CyLib.c ****             /* Set new feedback, reference and current values */
1838:Generated_Source\PSoC4/CyLib.c ****             regTmp  = CY_SYS_CLK_PLL_BASE.pll[pll].config & (uint32) ~(CY_SYS_CLK_PLL_CONFIG_FEEDBA
1839:Generated_Source\PSoC4/CyLib.c ****                                                                        CY_SYS_CLK_PLL_CONFIG_REFERE
1840:Generated_Source\PSoC4/CyLib.c ****                                                                        CY_SYS_CLK_PLL_CONFIG_ICP_SE
1841:Generated_Source\PSoC4/CyLib.c **** 
1842:Generated_Source\PSoC4/CyLib.c ****             regTmp |= ((feedback << CY_SYS_CLK_PLL_CONFIG_FEEDBACK_DIV_SHIFT) & CY_SYS_CLK_PLL_CONF
1843:Generated_Source\PSoC4/CyLib.c ****             regTmp |= (((reference - 1u) << CY_SYS_CLK_PLL_CONFIG_REFERENCE_DIV_SHIFT) & CY_SYS_CLK
1844:Generated_Source\PSoC4/CyLib.c ****             regTmp |= ((current << CY_SYS_CLK_PLL_CONFIG_ICP_SEL_SHIFT) & CY_SYS_CLK_PLL_CONFIG_ICP
1845:Generated_Source\PSoC4/CyLib.c **** 
1846:Generated_Source\PSoC4/CyLib.c ****             CY_SYS_CLK_PLL_BASE.pll[pll].config = regTmp;
1847:Generated_Source\PSoC4/CyLib.c **** 
1848:Generated_Source\PSoC4/CyLib.c ****             returnStatus = CYRET_SUCCESS;
1849:Generated_Source\PSoC4/CyLib.c ****         }
1850:Generated_Source\PSoC4/CyLib.c **** 
1851:Generated_Source\PSoC4/CyLib.c ****         CyExitCriticalSection(interruptState);
1852:Generated_Source\PSoC4/CyLib.c **** 
1853:Generated_Source\PSoC4/CyLib.c ****         return (returnStatus);
1854:Generated_Source\PSoC4/CyLib.c ****     }
1855:Generated_Source\PSoC4/CyLib.c **** 
1856:Generated_Source\PSoC4/CyLib.c **** 
1857:Generated_Source\PSoC4/CyLib.c ****     /*******************************************************************************
1858:Generated_Source\PSoC4/CyLib.c ****     * Function Name: CySysClkPllSetBypassMode
1859:Generated_Source\PSoC4/CyLib.c ****     ****************************************************************************//**
1860:Generated_Source\PSoC4/CyLib.c ****     *
1861:Generated_Source\PSoC4/CyLib.c ****     * Sets the bypass mode for the specified PLL.
1862:Generated_Source\PSoC4/CyLib.c ****     *
1863:Generated_Source\PSoC4/CyLib.c ****     * The PLL must not be the system clock source when calling this function.
1864:Generated_Source\PSoC4/CyLib.c ****     * The PLL output will glitch during this function call.
1865:Generated_Source\PSoC4/CyLib.c ****     *
1866:Generated_Source\PSoC4/CyLib.c ****     * When the PLL's reference input is higher than HFCLK frequency the device may 
1867:Generated_Source\PSoC4/CyLib.c ****     * lock due to incorrect flash wait cycle configuration and bypass switches from 
1868:Generated_Source\PSoC4/CyLib.c ****     * PLL output to the reference input. See description of 
1869:Generated_Source\PSoC4/CyLib.c ****     * CySysFlashSetWaitCycles() for more information.
1870:Generated_Source\PSoC4/CyLib.c ****     *
1871:Generated_Source\PSoC4/CyLib.c ****     * This API is available only for PSoC 4200L / 4100S / 4500 swith PLL devices.
1872:Generated_Source\PSoC4/CyLib.c ****     *
1873:Generated_Source\PSoC4/CyLib.c ****     * \param PLL:
1874:Generated_Source\PSoC4/CyLib.c ****     *  0   PLL#0
1875:Generated_Source\PSoC4/CyLib.c ****     *  1   PLL#1 (available only for PSoC 4200L)
1876:Generated_Source\PSoC4/CyLib.c ****     *
1877:Generated_Source\PSoC4/CyLib.c ****     * \param bypass: The bypass mode.
1878:Generated_Source\PSoC4/CyLib.c ****     * CY_SYS_PLL_BYPASS_AUTO - Automatic usage of the lock indicator. When unlocked,
1879:Generated_Source\PSoC4/CyLib.c ****     * automatically selects PLL the reference input (bypass mode). When locked,
1880:Generated_Source\PSoC4/CyLib.c ****     * automatically selects the PLL output.
1881:Generated_Source\PSoC4/CyLib.c ****     *
1882:Generated_Source\PSoC4/CyLib.c ****     * CY_SYS_PLL_BYPASS_PLL_REF - Selects the PLL reference input (bypass mode).
1883:Generated_Source\PSoC4/CyLib.c ****     * Ignores the lock indicator.
1884:Generated_Source\PSoC4/CyLib.c ****     *
1885:Generated_Source\PSoC4/CyLib.c ****     * CY_SYS_PLL_BYPASS_PLL_OUT - Selects the PLL output.  Ignores the lock indicator.
ARM GAS  C:\Users\Jesus\AppData\Local\Temp\cc071y2F.s 			page 39


1886:Generated_Source\PSoC4/CyLib.c ****     *
1887:Generated_Source\PSoC4/CyLib.c ****     *******************************************************************************/
1888:Generated_Source\PSoC4/CyLib.c ****     void CySysClkPllSetBypassMode(uint32 pll, uint32 bypass)
1889:Generated_Source\PSoC4/CyLib.c ****     {
1890:Generated_Source\PSoC4/CyLib.c ****         uint32 regTmp;
1891:Generated_Source\PSoC4/CyLib.c ****         uint8  interruptState;
1892:Generated_Source\PSoC4/CyLib.c **** 
1893:Generated_Source\PSoC4/CyLib.c ****         interruptState = CyEnterCriticalSection();
1894:Generated_Source\PSoC4/CyLib.c **** 
1895:Generated_Source\PSoC4/CyLib.c ****         if ((pll < CY_IP_PLL_NR) && (bypass <= CY_SYS_PLL_BYPASS_PLL_OUT))
1896:Generated_Source\PSoC4/CyLib.c ****         {
1897:Generated_Source\PSoC4/CyLib.c ****             regTmp  = CY_SYS_CLK_PLL_BASE.pll[pll].config & (uint32) ~CY_SYS_CLK_PLL_CONFIG_BYPASS_
1898:Generated_Source\PSoC4/CyLib.c ****             regTmp |=  (uint32)(bypass << CY_SYS_CLK_PLL_CONFIG_BYPASS_SEL_SHIFT);
1899:Generated_Source\PSoC4/CyLib.c ****             CY_SYS_CLK_PLL_BASE.pll[pll].config = regTmp;
1900:Generated_Source\PSoC4/CyLib.c ****         }
1901:Generated_Source\PSoC4/CyLib.c **** 
1902:Generated_Source\PSoC4/CyLib.c ****         CyExitCriticalSection(interruptState);
1903:Generated_Source\PSoC4/CyLib.c ****     }
1904:Generated_Source\PSoC4/CyLib.c **** 
1905:Generated_Source\PSoC4/CyLib.c **** 
1906:Generated_Source\PSoC4/CyLib.c ****     /*******************************************************************************
1907:Generated_Source\PSoC4/CyLib.c ****     * Function Name: CySysClkPllGetBypassMode
1908:Generated_Source\PSoC4/CyLib.c ****     ****************************************************************************//**
1909:Generated_Source\PSoC4/CyLib.c ****     *
1910:Generated_Source\PSoC4/CyLib.c ****     *  Gets the bypass mode for the specified PLL.
1911:Generated_Source\PSoC4/CyLib.c ****     *  This API is available only for PSoC 4200L / 4100S / 4500 with PLL devices.
1912:Generated_Source\PSoC4/CyLib.c ****     *
1913:Generated_Source\PSoC4/CyLib.c ****     *  \return bypass: Bypass mode.
1914:Generated_Source\PSoC4/CyLib.c ****     *   The same as the parameter of the CySysClkPllSetBypassMode().
1915:Generated_Source\PSoC4/CyLib.c ****     *
1916:Generated_Source\PSoC4/CyLib.c ****     *******************************************************************************/
1917:Generated_Source\PSoC4/CyLib.c ****     static uint32 CySysClkPllGetBypassMode(uint32 pll)
1918:Generated_Source\PSoC4/CyLib.c ****     {
1919:Generated_Source\PSoC4/CyLib.c ****         uint32 returnValue;
1920:Generated_Source\PSoC4/CyLib.c ****         uint8  interruptState;
1921:Generated_Source\PSoC4/CyLib.c **** 
1922:Generated_Source\PSoC4/CyLib.c ****         CYASSERT(pll < CY_IP_PLL_NR);
1923:Generated_Source\PSoC4/CyLib.c **** 
1924:Generated_Source\PSoC4/CyLib.c ****         interruptState = CyEnterCriticalSection();
1925:Generated_Source\PSoC4/CyLib.c **** 
1926:Generated_Source\PSoC4/CyLib.c ****         returnValue = CY_SYS_CLK_PLL_BASE.pll[pll].config & CY_SYS_CLK_PLL_CONFIG_BYPASS_SEL_MASK;
1927:Generated_Source\PSoC4/CyLib.c ****         returnValue =  returnValue >> CY_SYS_CLK_PLL_CONFIG_BYPASS_SEL_SHIFT;
1928:Generated_Source\PSoC4/CyLib.c **** 
1929:Generated_Source\PSoC4/CyLib.c ****         CyExitCriticalSection(interruptState);
1930:Generated_Source\PSoC4/CyLib.c **** 
1931:Generated_Source\PSoC4/CyLib.c ****         return (returnValue);
1932:Generated_Source\PSoC4/CyLib.c ****     }
1933:Generated_Source\PSoC4/CyLib.c **** 
1934:Generated_Source\PSoC4/CyLib.c **** 
1935:Generated_Source\PSoC4/CyLib.c ****     /*******************************************************************************
1936:Generated_Source\PSoC4/CyLib.c ****     * Function Name: CySysClkPllConfigChangeAllowed
1937:Generated_Source\PSoC4/CyLib.c ****     ****************************************************************************//**
1938:Generated_Source\PSoC4/CyLib.c ****     *
1939:Generated_Source\PSoC4/CyLib.c ****     *  The function returns non-zero value if the specified PLL sources the System
1940:Generated_Source\PSoC4/CyLib.c ****     *  clock and the PLL is not in the bypass mode.
1941:Generated_Source\PSoC4/CyLib.c ****     *
1942:Generated_Source\PSoC4/CyLib.c ****     *  This API is available only for PSoC 4200L / 4100S / 4500 with PLL devices.
ARM GAS  C:\Users\Jesus\AppData\Local\Temp\cc071y2F.s 			page 40


1943:Generated_Source\PSoC4/CyLib.c ****     *
1944:Generated_Source\PSoC4/CyLib.c ****     *  \param PLL:
1945:Generated_Source\PSoC4/CyLib.c ****     *   0   PLL#0
1946:Generated_Source\PSoC4/CyLib.c ****     *   1   PLL#1 (available only for PSoC 4200L)
1947:Generated_Source\PSoC4/CyLib.c ****     *
1948:Generated_Source\PSoC4/CyLib.c ****     * \return Non-zero value when the specified PLL sources the System clock and
1949:Generated_Source\PSoC4/CyLib.c ****     * the PLL is not in the bypass mode.
1950:Generated_Source\PSoC4/CyLib.c ****     *
1951:Generated_Source\PSoC4/CyLib.c ****     *******************************************************************************/
1952:Generated_Source\PSoC4/CyLib.c ****     static cystatus CySysClkPllConfigChangeAllowed(uint32 pll)
1953:Generated_Source\PSoC4/CyLib.c ****     {
1954:Generated_Source\PSoC4/CyLib.c ****         uint32   pllBypassMode;
1955:Generated_Source\PSoC4/CyLib.c ****         uint32   sysclkSource;
1956:Generated_Source\PSoC4/CyLib.c ****         cystatus returnValue = CYRET_INVALID_STATE;
1957:Generated_Source\PSoC4/CyLib.c **** 
1958:Generated_Source\PSoC4/CyLib.c ****         sysclkSource  = CySysClkGetSysclkSource();
1959:Generated_Source\PSoC4/CyLib.c ****         pllBypassMode = CySysClkPllGetBypassMode(pll);
1960:Generated_Source\PSoC4/CyLib.c **** 
1961:Generated_Source\PSoC4/CyLib.c ****         if ((CY_SYS_PLL_BYPASS_PLL_REF == pllBypassMode)             ||
1962:Generated_Source\PSoC4/CyLib.c ****             ((CY_SYS_CLK_HFCLK_PLL0 != sysclkSource) && (0u == pll))
1963:Generated_Source\PSoC4/CyLib.c ****         #if (CY_IP_SRSSV2)
1964:Generated_Source\PSoC4/CyLib.c ****             || ((CY_SYS_CLK_HFCLK_PLL1 != sysclkSource) && (1u == pll))
1965:Generated_Source\PSoC4/CyLib.c ****         #endif /* (CY_IP_SRSSV2) */
1966:Generated_Source\PSoC4/CyLib.c ****             )
1967:Generated_Source\PSoC4/CyLib.c ****         {
1968:Generated_Source\PSoC4/CyLib.c ****             returnValue = CYRET_SUCCESS;
1969:Generated_Source\PSoC4/CyLib.c ****         }
1970:Generated_Source\PSoC4/CyLib.c **** 
1971:Generated_Source\PSoC4/CyLib.c ****         return (returnValue);
1972:Generated_Source\PSoC4/CyLib.c ****     }
1973:Generated_Source\PSoC4/CyLib.c **** 
1974:Generated_Source\PSoC4/CyLib.c **** 
1975:Generated_Source\PSoC4/CyLib.c ****     /*******************************************************************************
1976:Generated_Source\PSoC4/CyLib.c ****     * Function Name: CySysClkPllGetUnlockStatus
1977:Generated_Source\PSoC4/CyLib.c ****     ****************************************************************************//**
1978:Generated_Source\PSoC4/CyLib.c ****     *
1979:Generated_Source\PSoC4/CyLib.c ****     *  Returns a non-zero value if the specified PLL output was unlocked.
1980:Generated_Source\PSoC4/CyLib.c ****     *  The unlock status is an indicator that the PLL has lost a lock at least once
1981:Generated_Source\PSoC4/CyLib.c ****     *  during its operation. The unlock status is cleared once it is read using
1982:Generated_Source\PSoC4/CyLib.c ****     *  this API.
1983:Generated_Source\PSoC4/CyLib.c ****     *
1984:Generated_Source\PSoC4/CyLib.c ****     *  This API is available only for PSoC 4200L / 4100S / 4500 with PLL devices.
1985:Generated_Source\PSoC4/CyLib.c ****     *
1986:Generated_Source\PSoC4/CyLib.c ****     *  \param PLL:
1987:Generated_Source\PSoC4/CyLib.c ****     *   0   PLL#0
1988:Generated_Source\PSoC4/CyLib.c ****     *   1   PLL#1 (available only for PSoC 4200L)
1989:Generated_Source\PSoC4/CyLib.c ****     *
1990:Generated_Source\PSoC4/CyLib.c ****     * \return Non-zero value when the specified PLL was unlocked.
1991:Generated_Source\PSoC4/CyLib.c ****     *
1992:Generated_Source\PSoC4/CyLib.c ****     *******************************************************************************/
1993:Generated_Source\PSoC4/CyLib.c ****     uint32 CySysClkPllGetUnlockStatus(uint32 pll)
1994:Generated_Source\PSoC4/CyLib.c ****     {
1995:Generated_Source\PSoC4/CyLib.c ****         uint32 returnStatus = 0u;
1996:Generated_Source\PSoC4/CyLib.c ****         uint8  interruptState;
1997:Generated_Source\PSoC4/CyLib.c **** 
1998:Generated_Source\PSoC4/CyLib.c ****         interruptState = CyEnterCriticalSection();
1999:Generated_Source\PSoC4/CyLib.c **** 
ARM GAS  C:\Users\Jesus\AppData\Local\Temp\cc071y2F.s 			page 41


2000:Generated_Source\PSoC4/CyLib.c ****         returnStatus = CY_SYS_CLK_PLL_BASE.pll[pll].test & CY_SYS_CLK_PLL_TEST_UNLOCK_OCCURRED_MASK
2001:Generated_Source\PSoC4/CyLib.c ****         CY_SYS_CLK_PLL_BASE.pll[pll].test |= CY_SYS_CLK_PLL_TEST_UNLOCK_OCCURRED_MASK;
2002:Generated_Source\PSoC4/CyLib.c **** 
2003:Generated_Source\PSoC4/CyLib.c ****         CyExitCriticalSection(interruptState);
2004:Generated_Source\PSoC4/CyLib.c **** 
2005:Generated_Source\PSoC4/CyLib.c ****         return (returnStatus);
2006:Generated_Source\PSoC4/CyLib.c ****     }
2007:Generated_Source\PSoC4/CyLib.c **** 
2008:Generated_Source\PSoC4/CyLib.c **** 
2009:Generated_Source\PSoC4/CyLib.c ****     /*******************************************************************************
2010:Generated_Source\PSoC4/CyLib.c ****     * Function Name: CySysClkPllSetFrequency
2011:Generated_Source\PSoC4/CyLib.c ****     ****************************************************************************//**
2012:Generated_Source\PSoC4/CyLib.c ****     *
2013:Generated_Source\PSoC4/CyLib.c ****     * Configures either PLL#0 or PLL#1 for the requested input/output frequencies.
2014:Generated_Source\PSoC4/CyLib.c ****     * The input frequency is the frequency of the source to the PLL. The source is
2015:Generated_Source\PSoC4/CyLib.c ****     * set using the CySysClkPllSetSource() function.
2016:Generated_Source\PSoC4/CyLib.c ****     *
2017:Generated_Source\PSoC4/CyLib.c ****     * The PLL must not be the system clock source when calling this function. The
2018:Generated_Source\PSoC4/CyLib.c ****     * PLL output will glitch during this function call.
2019:Generated_Source\PSoC4/CyLib.c ****     *
2020:Generated_Source\PSoC4/CyLib.c ****     * This API is available only for PSoC 4200L / 4100S / 4500 with PLL devices.
2021:Generated_Source\PSoC4/CyLib.c ****     *
2022:Generated_Source\PSoC4/CyLib.c ****     * \param pll:
2023:Generated_Source\PSoC4/CyLib.c ****     *  0   PLL#0
2024:Generated_Source\PSoC4/CyLib.c ****     *  1   PLL#1 (available only for PSoC 4200L)
2025:Generated_Source\PSoC4/CyLib.c ****     *
2026:Generated_Source\PSoC4/CyLib.c ****     * \param inputFreq The reference frequency in KHz. The valid range is from 1000 to 49152 KHz.
2027:Generated_Source\PSoC4/CyLib.c ****     *
2028:Generated_Source\PSoC4/CyLib.c ****     * \param pllFreq The target frequency in KHz. The valid range is from 22500 to 49152 KHz.
2029:Generated_Source\PSoC4/CyLib.c ****     *
2030:Generated_Source\PSoC4/CyLib.c ****     * \param divider The output clock divider for the PLL:
2031:Generated_Source\PSoC4/CyLib.c ****     * CY_SYS_PLL_OUTPUT_DIVPASS    Pass Through
2032:Generated_Source\PSoC4/CyLib.c ****     * CY_SYS_PLL_OUTPUT_DIV2       Divide by 2
2033:Generated_Source\PSoC4/CyLib.c ****     * CY_SYS_PLL_OUTPUT_DIV4       Divide by 4
2034:Generated_Source\PSoC4/CyLib.c ****     * CY_SYS_PLL_OUTPUT_DIV8       Divide by 8
2035:Generated_Source\PSoC4/CyLib.c ****     *
2036:Generated_Source\PSoC4/CyLib.c ****     * \param freqTol The tolerance in ppm, 10 ppm is equal to 0.001%.
2037:Generated_Source\PSoC4/CyLib.c ****     *
2038:Generated_Source\PSoC4/CyLib.c ****     * \return CYRET_SUCCESS The PLL was successfully configured for the requested
2039:Generated_Source\PSoC4/CyLib.c ****     * frequency.
2040:Generated_Source\PSoC4/CyLib.c ****     *
2041:Generated_Source\PSoC4/CyLib.c ****     * \return CYRET_BAD_PARAM The PLL was not able to successfully configure for the
2042:Generated_Source\PSoC4/CyLib.c ****     * requested frequency.
2043:Generated_Source\PSoC4/CyLib.c ****     *
2044:Generated_Source\PSoC4/CyLib.c ****     *******************************************************************************/
2045:Generated_Source\PSoC4/CyLib.c ****     cystatus CySysClkPllSetFrequency(uint32 pll, uint32 inputFreq, uint32 pllFreq, uint32 divider, 
2046:Generated_Source\PSoC4/CyLib.c ****     {
2047:Generated_Source\PSoC4/CyLib.c ****         uint32 qMin;
2048:Generated_Source\PSoC4/CyLib.c ****         uint32 qMax;
2049:Generated_Source\PSoC4/CyLib.c **** 
2050:Generated_Source\PSoC4/CyLib.c ****         uint32 qVal = CY_SYS_CLK_PLL_INVALID;
2051:Generated_Source\PSoC4/CyLib.c ****         uint32 pVal = CY_SYS_CLK_PLL_INVALID;
2052:Generated_Source\PSoC4/CyLib.c **** 
2053:Generated_Source\PSoC4/CyLib.c ****         uint32 q;
2054:Generated_Source\PSoC4/CyLib.c ****         uint32 p;
2055:Generated_Source\PSoC4/CyLib.c **** 
2056:Generated_Source\PSoC4/CyLib.c ****         uint32 fvco;
ARM GAS  C:\Users\Jesus\AppData\Local\Temp\cc071y2F.s 			page 42


2057:Generated_Source\PSoC4/CyLib.c ****         int32 ferr;
2058:Generated_Source\PSoC4/CyLib.c **** 
2059:Generated_Source\PSoC4/CyLib.c ****         cystatus tmp;
2060:Generated_Source\PSoC4/CyLib.c ****         cystatus returnStatus = CYRET_BAD_PARAM;
2061:Generated_Source\PSoC4/CyLib.c **** 
2062:Generated_Source\PSoC4/CyLib.c **** 
2063:Generated_Source\PSoC4/CyLib.c ****         tmp = CySysClkPllConfigChangeAllowed(pll);
2064:Generated_Source\PSoC4/CyLib.c **** 
2065:Generated_Source\PSoC4/CyLib.c ****         if ((pll < CY_IP_PLL_NR) &&
2066:Generated_Source\PSoC4/CyLib.c ****             (inputFreq  >= CY_SYS_CLK_PLL_INPUT_FREQ_MIN )  && (inputFreq  <= CY_SYS_CLK_PLL_INPUT_
2067:Generated_Source\PSoC4/CyLib.c ****             (pllFreq >= CY_SYS_CLK_PLL_OUTPUT_FREQ_MIN ) && (pllFreq <= CY_SYS_CLK_PLL_OUTPUT_FREQ_
2068:Generated_Source\PSoC4/CyLib.c ****             (divider <= CY_SYS_PLL_OUTPUT_DIV8) &&
2069:Generated_Source\PSoC4/CyLib.c ****             (CYRET_SUCCESS == tmp))
2070:Generated_Source\PSoC4/CyLib.c ****         {
2071:Generated_Source\PSoC4/CyLib.c **** 
2072:Generated_Source\PSoC4/CyLib.c ****             /* Minimum feed forward loop divisor */
2073:Generated_Source\PSoC4/CyLib.c ****             qMin = (inputFreq + (CY_SYS_CLK_PLL_FPFDMAX - 1u)) / CY_SYS_CLK_PLL_FPFDMAX;
2074:Generated_Source\PSoC4/CyLib.c ****             qMin = (qMin < CY_SYS_CLK_PLL_QMINIP) ? CY_SYS_CLK_PLL_QMINIP : qMin;
2075:Generated_Source\PSoC4/CyLib.c **** 
2076:Generated_Source\PSoC4/CyLib.c ****             /* Maximum feed forward loop divisor */
2077:Generated_Source\PSoC4/CyLib.c ****             qMax = inputFreq / CY_SYS_CLK_PLL_FPFDMIN;
2078:Generated_Source\PSoC4/CyLib.c ****             qMax = (qMax > CY_SYS_CLK_PLL_QMAXIP) ? CY_SYS_CLK_PLL_QMAXIP : qMax;
2079:Generated_Source\PSoC4/CyLib.c **** 
2080:Generated_Source\PSoC4/CyLib.c ****             if (qMin <= qMax)
2081:Generated_Source\PSoC4/CyLib.c ****             {
2082:Generated_Source\PSoC4/CyLib.c ****                 for(q = qMin; q <= qMax; q++)
2083:Generated_Source\PSoC4/CyLib.c ****                 {
2084:Generated_Source\PSoC4/CyLib.c ****                     /* Solve for the feedback divisor value */
2085:Generated_Source\PSoC4/CyLib.c **** 
2086:Generated_Source\PSoC4/CyLib.c ****                     /* INT((pllFreq * q ) / inputFreq), where INT is normal rounding  */
2087:Generated_Source\PSoC4/CyLib.c ****                     p = ((pllFreq * q) + (inputFreq / 2u)) / inputFreq;
2088:Generated_Source\PSoC4/CyLib.c **** 
2089:Generated_Source\PSoC4/CyLib.c ****                     /* Calculate the actual VCO frequency (FVCO) */
2090:Generated_Source\PSoC4/CyLib.c ****                     fvco = ((inputFreq * p) / q);
2091:Generated_Source\PSoC4/CyLib.c **** 
2092:Generated_Source\PSoC4/CyLib.c ****                     /* Calculate the frequency error (FERR) */
2093:Generated_Source\PSoC4/CyLib.c ****                     ferr = ((1000000 * ((int32) fvco - (int32) pllFreq))/ (int32) pllFreq);
2094:Generated_Source\PSoC4/CyLib.c **** 
2095:Generated_Source\PSoC4/CyLib.c ****                     /* Bound check the frequency error and decide next action */
2096:Generated_Source\PSoC4/CyLib.c ****                     if ((( -1 * (int32) freqTol) <= ferr) && (ferr <= (int32) freqTol))
2097:Generated_Source\PSoC4/CyLib.c ****                     {
2098:Generated_Source\PSoC4/CyLib.c ****                         qVal = q;
2099:Generated_Source\PSoC4/CyLib.c ****                         pVal = p;
2100:Generated_Source\PSoC4/CyLib.c ****                         break;
2101:Generated_Source\PSoC4/CyLib.c ****                     }
2102:Generated_Source\PSoC4/CyLib.c ****                 }
2103:Generated_Source\PSoC4/CyLib.c **** 
2104:Generated_Source\PSoC4/CyLib.c **** 
2105:Generated_Source\PSoC4/CyLib.c ****                 if ((pVal != CY_SYS_CLK_PLL_INVALID) && (qVal != CY_SYS_CLK_PLL_INVALID))
2106:Generated_Source\PSoC4/CyLib.c ****                 {
2107:Generated_Source\PSoC4/CyLib.c ****                     if (CySysClkPllSetPQ(pll, pVal, qVal, CY_SYS_CLK_PLL_CURRENT_DEFAULT) == CYRET_
2108:Generated_Source\PSoC4/CyLib.c ****                     {
2109:Generated_Source\PSoC4/CyLib.c ****                         returnStatus = CySysClkPllSetOutputDivider(pll, divider);
2110:Generated_Source\PSoC4/CyLib.c ****                     }
2111:Generated_Source\PSoC4/CyLib.c ****                 }
2112:Generated_Source\PSoC4/CyLib.c ****             }
2113:Generated_Source\PSoC4/CyLib.c **** 
ARM GAS  C:\Users\Jesus\AppData\Local\Temp\cc071y2F.s 			page 43


2114:Generated_Source\PSoC4/CyLib.c ****         }
2115:Generated_Source\PSoC4/CyLib.c **** 
2116:Generated_Source\PSoC4/CyLib.c ****         return (returnStatus);
2117:Generated_Source\PSoC4/CyLib.c ****     }
2118:Generated_Source\PSoC4/CyLib.c **** 
2119:Generated_Source\PSoC4/CyLib.c ****     /*******************************************************************************
2120:Generated_Source\PSoC4/CyLib.c ****     * Function Name: CySysClkPllSetSource
2121:Generated_Source\PSoC4/CyLib.c ****     ****************************************************************************//**
2122:Generated_Source\PSoC4/CyLib.c ****     *
2123:Generated_Source\PSoC4/CyLib.c ****     *  Sets the input clock source to the PLL. The PLL must be disabled before
2124:Generated_Source\PSoC4/CyLib.c ****     *  calling this function.
2125:Generated_Source\PSoC4/CyLib.c ****     *
2126:Generated_Source\PSoC4/CyLib.c ****     *  This API is available only for PSoC 4200L / 4100S /4500 with PLL devices.
2127:Generated_Source\PSoC4/CyLib.c ****     *
2128:Generated_Source\PSoC4/CyLib.c ****     *  \param PLL:
2129:Generated_Source\PSoC4/CyLib.c ****     *  0   PLL#0
2130:Generated_Source\PSoC4/CyLib.c ****     *  1   PLL#1 (available only for PSoC 4200L)
2131:Generated_Source\PSoC4/CyLib.c ****     *
2132:Generated_Source\PSoC4/CyLib.c ****     * \param source:
2133:Generated_Source\PSoC4/CyLib.c ****     *  CY_SYS_PLL_SOURCE_IMO        IMO
2134:Generated_Source\PSoC4/CyLib.c ****     *  CY_SYS_PLL_SOURCE_EXTCLK     External Clock (available only for PSoC 4200L 
2135:Generated_Source\PSoC4/CyLib.c ****     *  and PSoC 4500 with PLL devices)
2136:Generated_Source\PSoC4/CyLib.c ****     *  CY_SYS_PLL_SOURCE_ECO        ECO
2137:Generated_Source\PSoC4/CyLib.c ****     *  CY_SYS_PLL_SOURCE_DSI0       DSI_OUT[0] (available only for PSoC 4200L)
2138:Generated_Source\PSoC4/CyLib.c ****     *  CY_SYS_PLL_SOURCE_DSI1       DSI_OUT[1] (available only for PSoC 4200L)
2139:Generated_Source\PSoC4/CyLib.c ****     *  CY_SYS_PLL_SOURCE_DSI2       DSI_OUT[2] (available only for PSoC 4200L)
2140:Generated_Source\PSoC4/CyLib.c ****     *  CY_SYS_PLL_SOURCE_DSI3       DSI_OUT[3] (available only for PSoC 4200L)
2141:Generated_Source\PSoC4/CyLib.c ****     *
2142:Generated_Source\PSoC4/CyLib.c ****     *******************************************************************************/
2143:Generated_Source\PSoC4/CyLib.c ****     void CySysClkPllSetSource(uint32 pll, uint32 source)
2144:Generated_Source\PSoC4/CyLib.c ****     {
2145:Generated_Source\PSoC4/CyLib.c ****         uint8  interruptState;
2146:Generated_Source\PSoC4/CyLib.c ****         
2147:Generated_Source\PSoC4/CyLib.c ****         #if (CY_IP_SRSSLT)
2148:Generated_Source\PSoC4/CyLib.c ****             uint8 i = 0u;
2149:Generated_Source\PSoC4/CyLib.c ****         #else
2150:Generated_Source\PSoC4/CyLib.c ****             uint32 regTmp;
2151:Generated_Source\PSoC4/CyLib.c ****         #endif /* (CY_IP_SRSSLT) */
2152:Generated_Source\PSoC4/CyLib.c **** 
2153:Generated_Source\PSoC4/CyLib.c ****         interruptState = CyEnterCriticalSection();
2154:Generated_Source\PSoC4/CyLib.c **** 
2155:Generated_Source\PSoC4/CyLib.c ****         if (pll < CY_IP_PLL_NR)
2156:Generated_Source\PSoC4/CyLib.c ****         {
2157:Generated_Source\PSoC4/CyLib.c ****             #if(CY_IP_SRSSV2)
2158:Generated_Source\PSoC4/CyLib.c ****                 regTmp = CY_SYS_CLK_SELECT_REG & (uint32) ~CY_SYS_CLK_SELECT_PLL_MASK(pll);
2159:Generated_Source\PSoC4/CyLib.c ****                 regTmp |= ((source << CY_SYS_CLK_SELECT_PLL_SHIFT(pll)) & CY_SYS_CLK_SELECT_PLL_MAS
2160:Generated_Source\PSoC4/CyLib.c ****                 CY_SYS_CLK_SELECT_REG = regTmp;
2161:Generated_Source\PSoC4/CyLib.c ****             #else
2162:Generated_Source\PSoC4/CyLib.c ****                 CY_SET_REG32_FIELD(CYREG_EXCO_CLK_SELECT, CYFLD_EXCO_REF_SEL, source);
2163:Generated_Source\PSoC4/CyLib.c ****                 
2164:Generated_Source\PSoC4/CyLib.c ****                 /* Generate clock sequence to change clock source in CY_SYS_ECO_CLK_SELECT_REG */
2165:Generated_Source\PSoC4/CyLib.c ****                 CY_SYS_EXCO_PGM_CLK_REG |= CY_SYS_EXCO_PGM_CLK_ENABLE_MASK;
2166:Generated_Source\PSoC4/CyLib.c ****                 
2167:Generated_Source\PSoC4/CyLib.c ****                 for(i = 0u; i < CY_SYS_EXCO_PGM_CLK_SEQ_GENERATOR; i++)
2168:Generated_Source\PSoC4/CyLib.c ****                 {
2169:Generated_Source\PSoC4/CyLib.c ****                     CY_SYS_EXCO_PGM_CLK_REG |= CY_SYS_EXCO_PGM_CLK_CLK_ECO_MASK;
2170:Generated_Source\PSoC4/CyLib.c ****                     CY_SYS_EXCO_PGM_CLK_REG &= ~CY_SYS_EXCO_PGM_CLK_CLK_ECO_MASK;
ARM GAS  C:\Users\Jesus\AppData\Local\Temp\cc071y2F.s 			page 44


2171:Generated_Source\PSoC4/CyLib.c ****                 }
2172:Generated_Source\PSoC4/CyLib.c ****                 
2173:Generated_Source\PSoC4/CyLib.c ****                 CY_SYS_EXCO_PGM_CLK_REG &= ~CY_SYS_EXCO_PGM_CLK_ENABLE_MASK;
2174:Generated_Source\PSoC4/CyLib.c **** 
2175:Generated_Source\PSoC4/CyLib.c ****             #endif /* (CY_IP_SRSSV2) */
2176:Generated_Source\PSoC4/CyLib.c ****         }
2177:Generated_Source\PSoC4/CyLib.c **** 
2178:Generated_Source\PSoC4/CyLib.c ****         CyExitCriticalSection(interruptState);
2179:Generated_Source\PSoC4/CyLib.c ****     }
2180:Generated_Source\PSoC4/CyLib.c **** 
2181:Generated_Source\PSoC4/CyLib.c ****     
2182:Generated_Source\PSoC4/CyLib.c ****     /*******************************************************************************
2183:Generated_Source\PSoC4/CyLib.c ****     * Function Name: CySysClkPllSetOutputDivider
2184:Generated_Source\PSoC4/CyLib.c ****     ****************************************************************************//**
2185:Generated_Source\PSoC4/CyLib.c ****     *
2186:Generated_Source\PSoC4/CyLib.c ****     *  Sets the output clock divider for the PLL.
2187:Generated_Source\PSoC4/CyLib.c ****     *
2188:Generated_Source\PSoC4/CyLib.c ****     *  The PLL must not be the System Clock source when calling this function. The
2189:Generated_Source\PSoC4/CyLib.c ****     *  PLL output will glitch during this function call.
2190:Generated_Source\PSoC4/CyLib.c ****     *
2191:Generated_Source\PSoC4/CyLib.c ****     *  This API is available only for PSoC 4200L / 4100S / 4500 with PLL devices.
2192:Generated_Source\PSoC4/CyLib.c ****     *
2193:Generated_Source\PSoC4/CyLib.c ****     *  \param PLL:
2194:Generated_Source\PSoC4/CyLib.c ****     *   0   PLL#0
2195:Generated_Source\PSoC4/CyLib.c ****     *   1   PLL#1 (available only for PSoC 4200L)
2196:Generated_Source\PSoC4/CyLib.c ****     *
2197:Generated_Source\PSoC4/CyLib.c ****     * \param divider:
2198:Generated_Source\PSoC4/CyLib.c ****     *  CY_SYS_PLL_OUTPUT_DIVPASS    Pass through
2199:Generated_Source\PSoC4/CyLib.c ****     *  CY_SYS_PLL_OUTPUT_DIV2       Divide by 2
2200:Generated_Source\PSoC4/CyLib.c ****     *  CY_SYS_PLL_OUTPUT_DIV4       Divide by 4
2201:Generated_Source\PSoC4/CyLib.c ****     *  CY_SYS_PLL_OUTPUT_DIV8       Divide by 8
2202:Generated_Source\PSoC4/CyLib.c ****     *
2203:Generated_Source\PSoC4/CyLib.c ****     * \return \ref CYRET_SUCCESS    Completed successfully.
2204:Generated_Source\PSoC4/CyLib.c ****     * \return \ref CYRET_BAD_PARAM  The parameters are out of range or the
2205:Generated_Source\PSoC4/CyLib.c ****     * specified PLL sources the System clock.
2206:Generated_Source\PSoC4/CyLib.c ****     *
2207:Generated_Source\PSoC4/CyLib.c ****     *******************************************************************************/
2208:Generated_Source\PSoC4/CyLib.c ****     cystatus CySysClkPllSetOutputDivider(uint32 pll, uint32 divider)
2209:Generated_Source\PSoC4/CyLib.c ****     {
2210:Generated_Source\PSoC4/CyLib.c ****         uint32   tmpReg;
2211:Generated_Source\PSoC4/CyLib.c ****         uint8    interruptState;
2212:Generated_Source\PSoC4/CyLib.c ****         cystatus returnStatus = CYRET_BAD_PARAM;
2213:Generated_Source\PSoC4/CyLib.c ****         cystatus tmp;
2214:Generated_Source\PSoC4/CyLib.c **** 
2215:Generated_Source\PSoC4/CyLib.c **** 
2216:Generated_Source\PSoC4/CyLib.c ****         interruptState = CyEnterCriticalSection();
2217:Generated_Source\PSoC4/CyLib.c **** 
2218:Generated_Source\PSoC4/CyLib.c ****         tmp = CySysClkPllConfigChangeAllowed(pll);
2219:Generated_Source\PSoC4/CyLib.c **** 
2220:Generated_Source\PSoC4/CyLib.c ****         if ((pll < CY_IP_PLL_NR) && (CYRET_SUCCESS == tmp) && (divider <= CY_SYS_PLL_OUTPUT_DIV8))
2221:Generated_Source\PSoC4/CyLib.c ****         {
2222:Generated_Source\PSoC4/CyLib.c ****             tmpReg  = CY_SYS_CLK_PLL_BASE.pll[pll].config & (uint32) ~(CY_SYS_CLK_PLL_CONFIG_OUTPUT
2223:Generated_Source\PSoC4/CyLib.c ****             tmpReg |= ((divider << CY_SYS_CLK_PLL_CONFIG_OUTPUT_DIV_SHIFT) & CY_SYS_CLK_PLL_CONFIG_
2224:Generated_Source\PSoC4/CyLib.c **** 
2225:Generated_Source\PSoC4/CyLib.c ****             CY_SYS_CLK_PLL_BASE.pll[pll].config = tmpReg;
2226:Generated_Source\PSoC4/CyLib.c **** 
2227:Generated_Source\PSoC4/CyLib.c ****             returnStatus = CYRET_SUCCESS;
ARM GAS  C:\Users\Jesus\AppData\Local\Temp\cc071y2F.s 			page 45


2228:Generated_Source\PSoC4/CyLib.c ****         }
2229:Generated_Source\PSoC4/CyLib.c **** 
2230:Generated_Source\PSoC4/CyLib.c ****         CyExitCriticalSection(interruptState);
2231:Generated_Source\PSoC4/CyLib.c **** 
2232:Generated_Source\PSoC4/CyLib.c ****         return (returnStatus);
2233:Generated_Source\PSoC4/CyLib.c ****     }
2234:Generated_Source\PSoC4/CyLib.c ****     
2235:Generated_Source\PSoC4/CyLib.c ****     
2236:Generated_Source\PSoC4/CyLib.c ****     #if (CY_IP_ECOV2_SRSSLT)
2237:Generated_Source\PSoC4/CyLib.c ****         /*******************************************************************************
2238:Generated_Source\PSoC4/CyLib.c ****         * Function Name: CySysClkPllGetInterruptCauseMasked
2239:Generated_Source\PSoC4/CyLib.c ****         ****************************************************************************//**
2240:Generated_Source\PSoC4/CyLib.c ****         *
2241:Generated_Source\PSoC4/CyLib.c ****         *  Returns a non-zero value that reflects a bit-wise AND between interrupt 
2242:Generated_Source\PSoC4/CyLib.c ****         *  request and mask registers. The API allows firmware to read the status of 
2243:Generated_Source\PSoC4/CyLib.c ****         *  all mask enabled interrupt causes with a single load operation.
2244:Generated_Source\PSoC4/CyLib.c ****         *
2245:Generated_Source\PSoC4/CyLib.c ****         *  This API is available only for PSoC 4500 with PLL devices.
2246:Generated_Source\PSoC4/CyLib.c ****         *
2247:Generated_Source\PSoC4/CyLib.c ****         * \return A set bit indicates the source of the interrupt:
2248:Generated_Source\PSoC4/CyLib.c ****         *  *CY_SYS_PLL_INTR_PLL_LOCK
2249:Generated_Source\PSoC4/CyLib.c ****         *  *CY_SYS_PLL_INTR_WD_ERR
2250:Generated_Source\PSoC4/CyLib.c ****         *  *CY_SYS_PLL_INTR_CSV_CLK_SW
2251:Generated_Source\PSoC4/CyLib.c ****         *
2252:Generated_Source\PSoC4/CyLib.c ****         *******************************************************************************/
2253:Generated_Source\PSoC4/CyLib.c ****         uint32 CySysClkPllGetInterruptCauseMasked(void)
2254:Generated_Source\PSoC4/CyLib.c ****         {
2255:Generated_Source\PSoC4/CyLib.c ****             return ((uint32)CY_GET_REG32(CYREG_EXCO_INTR_MASKED));
2256:Generated_Source\PSoC4/CyLib.c ****         }
2257:Generated_Source\PSoC4/CyLib.c **** 
2258:Generated_Source\PSoC4/CyLib.c ****         
2259:Generated_Source\PSoC4/CyLib.c ****         /*******************************************************************************
2260:Generated_Source\PSoC4/CyLib.c ****         * Function Name: CySysClkPllGetInterruptCause
2261:Generated_Source\PSoC4/CyLib.c ****         ****************************************************************************//**
2262:Generated_Source\PSoC4/CyLib.c ****         *
2263:Generated_Source\PSoC4/CyLib.c ****         *  Returns a non-zero value that reflects the interrupt request registers.
2264:Generated_Source\PSoC4/CyLib.c ****         *
2265:Generated_Source\PSoC4/CyLib.c ****         *  This API is available only for PSoC 4500 with PLL devices.
2266:Generated_Source\PSoC4/CyLib.c ****         *
2267:Generated_Source\PSoC4/CyLib.c ****         * \return A set bit indicates the source of the interrupt:
2268:Generated_Source\PSoC4/CyLib.c ****         *  *CY_SYS_PLL_INTR_PLL_LOCK
2269:Generated_Source\PSoC4/CyLib.c ****         *  *CY_SYS_PLL_INTR_WD_ERR
2270:Generated_Source\PSoC4/CyLib.c ****         *  *CY_SYS_PLL_INTR_CSV_CLK_SW
2271:Generated_Source\PSoC4/CyLib.c ****         *
2272:Generated_Source\PSoC4/CyLib.c ****         *******************************************************************************/
2273:Generated_Source\PSoC4/CyLib.c ****         uint32 CySysClkPllGetInterruptCause(void)
2274:Generated_Source\PSoC4/CyLib.c ****         {
2275:Generated_Source\PSoC4/CyLib.c ****             return ((uint32)CY_GET_REG32(CYREG_EXCO_INTR));
2276:Generated_Source\PSoC4/CyLib.c ****         }
2277:Generated_Source\PSoC4/CyLib.c **** 
2278:Generated_Source\PSoC4/CyLib.c **** 
2279:Generated_Source\PSoC4/CyLib.c ****         /*******************************************************************************
2280:Generated_Source\PSoC4/CyLib.c ****         * Function Name: CySysClkPllClearPendingInterrupt
2281:Generated_Source\PSoC4/CyLib.c ****         ****************************************************************************//**
2282:Generated_Source\PSoC4/CyLib.c ****         *
2283:Generated_Source\PSoC4/CyLib.c ****         *  Clears the pending interrupt. 
2284:Generated_Source\PSoC4/CyLib.c ****         *
ARM GAS  C:\Users\Jesus\AppData\Local\Temp\cc071y2F.s 			page 46


2285:Generated_Source\PSoC4/CyLib.c ****         *  This API is available only for PSoC 4500 with PLL devices.
2286:Generated_Source\PSoC4/CyLib.c ****         *
2287:Generated_Source\PSoC4/CyLib.c ****         * \param interrupt:
2288:Generated_Source\PSoC4/CyLib.c ****         *  CY_SYS_PLL_INTR_PLL_LOCK
2289:Generated_Source\PSoC4/CyLib.c ****         *  CY_SYS_PLL_INTR_WD_ERR
2290:Generated_Source\PSoC4/CyLib.c ****         *  CY_SYS_PLL_INTR_CSV_CLK_SW
2291:Generated_Source\PSoC4/CyLib.c ****         *  A logical OR of above can be used as input parameter.
2292:Generated_Source\PSoC4/CyLib.c ****         *
2293:Generated_Source\PSoC4/CyLib.c ****         *******************************************************************************/
2294:Generated_Source\PSoC4/CyLib.c ****         void CySysClkPllClearPendingInterrupt(uint32 interrupt)
2295:Generated_Source\PSoC4/CyLib.c ****         {
2296:Generated_Source\PSoC4/CyLib.c ****             CY_SET_REG32(CYREG_EXCO_INTR, interrupt);
2297:Generated_Source\PSoC4/CyLib.c ****         }
2298:Generated_Source\PSoC4/CyLib.c ****         
2299:Generated_Source\PSoC4/CyLib.c ****         
2300:Generated_Source\PSoC4/CyLib.c ****         /*******************************************************************************
2301:Generated_Source\PSoC4/CyLib.c ****         * Function Name: CySysClkPllSetInterruptMask
2302:Generated_Source\PSoC4/CyLib.c ****         ****************************************************************************//**
2303:Generated_Source\PSoC4/CyLib.c ****         *
2304:Generated_Source\PSoC4/CyLib.c ****         *  This API sets the interrupt mask bit for the corresponding interrupts.
2305:Generated_Source\PSoC4/CyLib.c ****         *
2306:Generated_Source\PSoC4/CyLib.c ****         *  This API is available only for PSoC 4500 with PLL devices.
2307:Generated_Source\PSoC4/CyLib.c ****         *
2308:Generated_Source\PSoC4/CyLib.c ****         * \param intrMask:
2309:Generated_Source\PSoC4/CyLib.c ****         *  CY_SYS_PLL_INTR_PLL_LOCK
2310:Generated_Source\PSoC4/CyLib.c ****         *  CY_SYS_PLL_INTR_WD_ERR
2311:Generated_Source\PSoC4/CyLib.c ****         *  CY_SYS_PLL_INTR_CSV_CLK_SW
2312:Generated_Source\PSoC4/CyLib.c ****         *  A logical OR of above can be used as input parameter.
2313:Generated_Source\PSoC4/CyLib.c ****         *
2314:Generated_Source\PSoC4/CyLib.c ****         *******************************************************************************/        
2315:Generated_Source\PSoC4/CyLib.c ****         void CySysClkPllSetInterruptMask(uint32 intrMask)
2316:Generated_Source\PSoC4/CyLib.c ****         {
2317:Generated_Source\PSoC4/CyLib.c ****             CY_SET_REG32(CYREG_EXCO_INTR_MASK, intrMask);
2318:Generated_Source\PSoC4/CyLib.c ****         }
2319:Generated_Source\PSoC4/CyLib.c **** 
2320:Generated_Source\PSoC4/CyLib.c ****         
2321:Generated_Source\PSoC4/CyLib.c ****         /*******************************************************************************
2322:Generated_Source\PSoC4/CyLib.c ****         * Function Name: CySysClkPllGetInterruptMask
2323:Generated_Source\PSoC4/CyLib.c ****         ****************************************************************************//**
2324:Generated_Source\PSoC4/CyLib.c ****         *
2325:Generated_Source\PSoC4/CyLib.c ****         *  This API returns the current interrupt mask register value.
2326:Generated_Source\PSoC4/CyLib.c ****         *
2327:Generated_Source\PSoC4/CyLib.c ****         *  This API is available only for PSoC 4500 with PLL devices.
2328:Generated_Source\PSoC4/CyLib.c ****         *
2329:Generated_Source\PSoC4/CyLib.c ****         * \return A set bit indicates the source of the interrupt:
2330:Generated_Source\PSoC4/CyLib.c ****         *  *CY_SYS_PLL_INTR_PLL_LOCK
2331:Generated_Source\PSoC4/CyLib.c ****         *  *CY_SYS_PLL_INTR_WD_ERR
2332:Generated_Source\PSoC4/CyLib.c ****         *  *CY_SYS_PLL_INTR_CSV_CLK_SW
2333:Generated_Source\PSoC4/CyLib.c ****         *
2334:Generated_Source\PSoC4/CyLib.c ****         *******************************************************************************/        
2335:Generated_Source\PSoC4/CyLib.c ****         uint32 CySysClkPllGetInterruptMask(void)
2336:Generated_Source\PSoC4/CyLib.c ****         {
2337:Generated_Source\PSoC4/CyLib.c ****             return ((uint32)CY_GET_REG32(CYREG_EXCO_INTR_MASK));
2338:Generated_Source\PSoC4/CyLib.c ****         }
2339:Generated_Source\PSoC4/CyLib.c **** 
2340:Generated_Source\PSoC4/CyLib.c ****         
2341:Generated_Source\PSoC4/CyLib.c ****         /*******************************************************************************
ARM GAS  C:\Users\Jesus\AppData\Local\Temp\cc071y2F.s 			page 47


2342:Generated_Source\PSoC4/CyLib.c ****         * Function Name: CySysClkPllSetInterrupt
2343:Generated_Source\PSoC4/CyLib.c ****         ****************************************************************************//**
2344:Generated_Source\PSoC4/CyLib.c ****         *
2345:Generated_Source\PSoC4/CyLib.c ****         *  This API asserts an interrupt. This can be used for firmware debugging.
2346:Generated_Source\PSoC4/CyLib.c ****         *
2347:Generated_Source\PSoC4/CyLib.c ****         *  This API is available only for PSoC 4500 with PLL devices.
2348:Generated_Source\PSoC4/CyLib.c ****         *
2349:Generated_Source\PSoC4/CyLib.c ****         * \param interrupt:
2350:Generated_Source\PSoC4/CyLib.c ****         *  CY_SYS_PLL_INTR_PLL_LOCK
2351:Generated_Source\PSoC4/CyLib.c ****         *  CY_SYS_PLL_INTR_WD_ERR
2352:Generated_Source\PSoC4/CyLib.c ****         *  CY_SYS_PLL_INTR_CSV_CLK_SW
2353:Generated_Source\PSoC4/CyLib.c ****         *  A logical OR of above can be used as input parameter.
2354:Generated_Source\PSoC4/CyLib.c ****         *
2355:Generated_Source\PSoC4/CyLib.c ****         *******************************************************************************/        
2356:Generated_Source\PSoC4/CyLib.c ****         void CySysClkPllSetInterrupt(uint32 interrupt)
2357:Generated_Source\PSoC4/CyLib.c ****         {
2358:Generated_Source\PSoC4/CyLib.c ****             CY_SET_REG32(CYREG_EXCO_INTR_SET, interrupt);
2359:Generated_Source\PSoC4/CyLib.c ****         }
2360:Generated_Source\PSoC4/CyLib.c **** 
2361:Generated_Source\PSoC4/CyLib.c ****         
2362:Generated_Source\PSoC4/CyLib.c ****         /*******************************************************************************
2363:Generated_Source\PSoC4/CyLib.c ****         * Function Name: CySysClkPllCsvEnable
2364:Generated_Source\PSoC4/CyLib.c ****         ****************************************************************************//**
2365:Generated_Source\PSoC4/CyLib.c ****         *
2366:Generated_Source\PSoC4/CyLib.c ****         * This API enables clock supervision on PLL frequency lock and loss.
2367:Generated_Source\PSoC4/CyLib.c ****         *
2368:Generated_Source\PSoC4/CyLib.c ****         * This API is available only for PSoC 4500 with PLL devices.
2369:Generated_Source\PSoC4/CyLib.c ****         *
2370:Generated_Source\PSoC4/CyLib.c ****         *******************************************************************************/          
2371:Generated_Source\PSoC4/CyLib.c ****         void CySysClkPllCsvEnable(void)
2372:Generated_Source\PSoC4/CyLib.c ****         {
2373:Generated_Source\PSoC4/CyLib.c ****             CY_SET_REG32_FIELD(CYREG_EXCO_REF_CTL, CYFLD_EXCO_CSV_EN, 0x1uL);
2374:Generated_Source\PSoC4/CyLib.c ****         }
2375:Generated_Source\PSoC4/CyLib.c **** 
2376:Generated_Source\PSoC4/CyLib.c ****         
2377:Generated_Source\PSoC4/CyLib.c ****         /*******************************************************************************
2378:Generated_Source\PSoC4/CyLib.c ****         * Function Name: CySysClkPllCsvDisable
2379:Generated_Source\PSoC4/CyLib.c ****         ****************************************************************************//**
2380:Generated_Source\PSoC4/CyLib.c ****         *
2381:Generated_Source\PSoC4/CyLib.c ****         * This API disables clock supervision on PLL.
2382:Generated_Source\PSoC4/CyLib.c ****         *
2383:Generated_Source\PSoC4/CyLib.c ****         * This API is available only for PSoC 4500 with PLL devices.
2384:Generated_Source\PSoC4/CyLib.c ****         *
2385:Generated_Source\PSoC4/CyLib.c ****         *******************************************************************************/         
2386:Generated_Source\PSoC4/CyLib.c ****         void CySysClkPllCsvDisable(void)
2387:Generated_Source\PSoC4/CyLib.c ****         {
2388:Generated_Source\PSoC4/CyLib.c ****             CY_CLEAR_REG32_FIELD(CYREG_EXCO_REF_CTL, CYFLD_EXCO_CSV_EN);
2389:Generated_Source\PSoC4/CyLib.c ****         }
2390:Generated_Source\PSoC4/CyLib.c **** 
2391:Generated_Source\PSoC4/CyLib.c ****         
2392:Generated_Source\PSoC4/CyLib.c ****         /*******************************************************************************
2393:Generated_Source\PSoC4/CyLib.c ****         * Function Name: CySysClkPllCsvSetSpvrCtl
2394:Generated_Source\PSoC4/CyLib.c ****         ****************************************************************************//**
2395:Generated_Source\PSoC4/CyLib.c ****         *
2396:Generated_Source\PSoC4/CyLib.c ****         *  This API enables sets the clock supervision parameters.
2397:Generated_Source\PSoC4/CyLib.c ****         *
2398:Generated_Source\PSoC4/CyLib.c ****         *  This API is available only for PSoC 4500 with PLL devices.
ARM GAS  C:\Users\Jesus\AppData\Local\Temp\cc071y2F.s 			page 48


2399:Generated_Source\PSoC4/CyLib.c ****         *
2400:Generated_Source\PSoC4/CyLib.c ****         * \param startupDelay:
2401:Generated_Source\PSoC4/CyLib.c ****         *  startup delay time -1 in reference clock cycles after enable 
2402:Generated_Source\PSoC4/CyLib.c ****         *  or deep sleep wake up from reference clock start to monitored clock start
2403:Generated_Source\PSoC4/CyLib.c ****         *
2404:Generated_Source\PSoC4/CyLib.c ****         * \param csvSwitch:
2405:Generated_Source\PSoC4/CyLib.c ****         * CY_SYS_PLL_CSV_INT_EN  Enable INTR.CSV_CLK_SW if a clock switch occurs to IMO
2406:Generated_Source\PSoC4/CyLib.c ****         * CY_SYS_PLL_CSV_TRIG_EN  Enable CSV to cause trigger if a clock switch occurs to IMO
2407:Generated_Source\PSoC4/CyLib.c ****         * CY_SYS_PLL_CSV_CLK_SW_EN  Enable CSV to cause clock switch IMO (enabled by default in 
2408:Generated_Source\PSoC4/CyLib.c ****         *
2409:Generated_Source\PSoC4/CyLib.c ****         *******************************************************************************/           
2410:Generated_Source\PSoC4/CyLib.c ****         void CySysClkPllCsvSetSpvrCtl(uint32 startupDelay, uint32 csvSwitch)
2411:Generated_Source\PSoC4/CyLib.c ****         {
2412:Generated_Source\PSoC4/CyLib.c ****             uint32 tmpRegVal = CY_GET_REG32(CYREG_EXCO_REF_CTL);
2413:Generated_Source\PSoC4/CyLib.c ****             
2414:Generated_Source\PSoC4/CyLib.c ****             tmpRegVal &= ~(CY_SYS_PLL_STARTUP_MASK | CY_SYS_PLL_CSV_MASK);
2415:Generated_Source\PSoC4/CyLib.c ****             tmpRegVal |= (startupDelay | csvSwitch);
2416:Generated_Source\PSoC4/CyLib.c ****             
2417:Generated_Source\PSoC4/CyLib.c ****             CY_SET_REG32(CYREG_EXCO_REF_CTL, tmpRegVal);
2418:Generated_Source\PSoC4/CyLib.c ****         }
2419:Generated_Source\PSoC4/CyLib.c **** 
2420:Generated_Source\PSoC4/CyLib.c ****         
2421:Generated_Source\PSoC4/CyLib.c ****         /*******************************************************************************
2422:Generated_Source\PSoC4/CyLib.c ****         * Function Name: CySysClkPllCsvSetRefLimits
2423:Generated_Source\PSoC4/CyLib.c ****         ****************************************************************************//**
2424:Generated_Source\PSoC4/CyLib.c ****         *
2425:Generated_Source\PSoC4/CyLib.c ****         *  This API sets the cycle time lower and upper limits.
2426:Generated_Source\PSoC4/CyLib.c ****         *
2427:Generated_Source\PSoC4/CyLib.c ****         *  This API is available only for PSoC 4500 with PLL devices.
2428:Generated_Source\PSoC4/CyLib.c ****         *
2429:Generated_Source\PSoC4/CyLib.c ****         * \param lower:
2430:Generated_Source\PSoC4/CyLib.c ****         *  Sets the lower limit -1, in reference clock cycles, 
2431:Generated_Source\PSoC4/CyLib.c ****         *  before the next monitored clock event is allowed to happen.  If a monitored 
2432:Generated_Source\PSoC4/CyLib.c ****         *  clock event happens before this limit is reached a CSV error is detected.
2433:Generated_Source\PSoC4/CyLib.c ****         *
2434:Generated_Source\PSoC4/CyLib.c ****         * \param upper:
2435:Generated_Source\PSoC4/CyLib.c ****         *  Sets the upper limit -1, in reference clock cycles, before (or same time) 
2436:Generated_Source\PSoC4/CyLib.c ****         *  the next monitored clock event must happen.  If a monitored clock event 
2437:Generated_Source\PSoC4/CyLib.c ****         *  does not happen before this limit is reached, or does not happen at all 
2438:Generated_Source\PSoC4/CyLib.c ****         *  (clock loss), a CSV error is detected.
2439:Generated_Source\PSoC4/CyLib.c ****         *
2440:Generated_Source\PSoC4/CyLib.c ****         *******************************************************************************/ 
2441:Generated_Source\PSoC4/CyLib.c ****         void CySysClkPllCsvSetRefLimits(uint32 lower, uint32 upper)
2442:Generated_Source\PSoC4/CyLib.c ****         {
2443:Generated_Source\PSoC4/CyLib.c ****             uint32 tmpRegVal = CY_GET_REG32(CYREG_EXCO_REF_LIMIT);
2444:Generated_Source\PSoC4/CyLib.c ****             
2445:Generated_Source\PSoC4/CyLib.c ****             tmpRegVal &= ~(CY_SYS_PLL_REF_LIMIT_LOWER_MASK | CY_SYS_PLL_REF_LIMIT_UPPER_MASK);
2446:Generated_Source\PSoC4/CyLib.c ****             tmpRegVal |= (lower | ((uint32)(upper << CY_SYS_PLL_REF_LIMIT_UPPER_OFFSET)));
2447:Generated_Source\PSoC4/CyLib.c ****             
2448:Generated_Source\PSoC4/CyLib.c ****             CY_SET_REG32(CYREG_EXCO_REF_LIMIT, tmpRegVal);
2449:Generated_Source\PSoC4/CyLib.c ****         }
2450:Generated_Source\PSoC4/CyLib.c **** 
2451:Generated_Source\PSoC4/CyLib.c ****         
2452:Generated_Source\PSoC4/CyLib.c ****         /*******************************************************************************
2453:Generated_Source\PSoC4/CyLib.c ****         * Function Name: CySysClkPllCsvGetRefLimits
2454:Generated_Source\PSoC4/CyLib.c ****         ****************************************************************************//**
2455:Generated_Source\PSoC4/CyLib.c ****         *
ARM GAS  C:\Users\Jesus\AppData\Local\Temp\cc071y2F.s 			page 49


2456:Generated_Source\PSoC4/CyLib.c ****         *  This API gets the cycle time lower and upper limits.
2457:Generated_Source\PSoC4/CyLib.c ****         *
2458:Generated_Source\PSoC4/CyLib.c ****         *  This API is available only for PSoC 4500 with PLL devices.
2459:Generated_Source\PSoC4/CyLib.c ****         *
2460:Generated_Source\PSoC4/CyLib.c ****         * \return 
2461:Generated_Source\PSoC4/CyLib.c ****         *  *Bits 31:16  upper limit
2462:Generated_Source\PSoC4/CyLib.c ****         *  *Bits 15:0  lower limit
2463:Generated_Source\PSoC4/CyLib.c ****         *
2464:Generated_Source\PSoC4/CyLib.c ****         *******************************************************************************/  
2465:Generated_Source\PSoC4/CyLib.c ****         uint32 CySysClkPllCsvGetRefLimits(void)
2466:Generated_Source\PSoC4/CyLib.c ****         {
2467:Generated_Source\PSoC4/CyLib.c ****             return ((uint32)CY_GET_REG32(CYREG_EXCO_REF_LIMIT));
2468:Generated_Source\PSoC4/CyLib.c ****         }
2469:Generated_Source\PSoC4/CyLib.c **** 
2470:Generated_Source\PSoC4/CyLib.c ****         
2471:Generated_Source\PSoC4/CyLib.c ****         /*******************************************************************************
2472:Generated_Source\PSoC4/CyLib.c ****         * Function Name: CySysClkPllCsvSetPeriod
2473:Generated_Source\PSoC4/CyLib.c ****         ****************************************************************************//**
2474:Generated_Source\PSoC4/CyLib.c ****         *
2475:Generated_Source\PSoC4/CyLib.c ****         *  This API sets the csv period time.
2476:Generated_Source\PSoC4/CyLib.c ****         *
2477:Generated_Source\PSoC4/CyLib.c ****         *  This API is available only for PSoC 4500 with PLL devices.
2478:Generated_Source\PSoC4/CyLib.c ****         *
2479:Generated_Source\PSoC4/CyLib.c ****         * \param period:
2480:Generated_Source\PSoC4/CyLib.c ****         *  Set the Period -1, in monitored clock cycles, before the next monitored 
2481:Generated_Source\PSoC4/CyLib.c ****         *  clock event happens.
2482:Generated_Source\PSoC4/CyLib.c ****         *  PERIOD <=  (UPPER+1) / FREQ_RATIO -1, with 
2483:Generated_Source\PSoC4/CyLib.c ****         *  FREQ_RATIO = (Reference frequency / Monitored frequency).
2484:Generated_Source\PSoC4/CyLib.c ****         *  In case the clocks are asynchronous: PERIOD <=  UPPER / FREQ_RATIO -1
2485:Generated_Source\PSoC4/CyLib.c ****         *
2486:Generated_Source\PSoC4/CyLib.c ****         *******************************************************************************/           
2487:Generated_Source\PSoC4/CyLib.c ****         void CySysClkPllCsvSetPeriod(uint32 period)
2488:Generated_Source\PSoC4/CyLib.c ****         {
2489:Generated_Source\PSoC4/CyLib.c ****             CY_SET_REG32_FIELD(CYREG_EXCO_MON_CTL, CYFLD_EXCO_PERIOD, period);
2490:Generated_Source\PSoC4/CyLib.c ****         }
2491:Generated_Source\PSoC4/CyLib.c **** 
2492:Generated_Source\PSoC4/CyLib.c **** 
2493:Generated_Source\PSoC4/CyLib.c ****         /*******************************************************************************
2494:Generated_Source\PSoC4/CyLib.c ****         * Function Name: CySysClkPllCsvGetPeriod
2495:Generated_Source\PSoC4/CyLib.c ****         ****************************************************************************//**
2496:Generated_Source\PSoC4/CyLib.c ****         *
2497:Generated_Source\PSoC4/CyLib.c ****         *  This API returns the CSV period time.
2498:Generated_Source\PSoC4/CyLib.c ****         *
2499:Generated_Source\PSoC4/CyLib.c ****         *  This API is available only for PSoC 4500 with PLL devices.
2500:Generated_Source\PSoC4/CyLib.c ****         *
2501:Generated_Source\PSoC4/CyLib.c ****         * \return Period time
2502:Generated_Source\PSoC4/CyLib.c ****         *
2503:Generated_Source\PSoC4/CyLib.c ****         *******************************************************************************/         
2504:Generated_Source\PSoC4/CyLib.c ****         uint32 CySysClkPllCsvGetPeriod(void)
2505:Generated_Source\PSoC4/CyLib.c ****         {
2506:Generated_Source\PSoC4/CyLib.c ****             return ((uint32)CY_GET_REG32_FIELD(CYREG_EXCO_MON_CTL, CYFLD_EXCO_PERIOD));
2507:Generated_Source\PSoC4/CyLib.c ****         }
2508:Generated_Source\PSoC4/CyLib.c **** 
2509:Generated_Source\PSoC4/CyLib.c ****         
2510:Generated_Source\PSoC4/CyLib.c ****         /*******************************************************************************
2511:Generated_Source\PSoC4/CyLib.c ****         * Function Name: CySysClkPllCsvEnableReset
2512:Generated_Source\PSoC4/CyLib.c ****         ****************************************************************************//**
ARM GAS  C:\Users\Jesus\AppData\Local\Temp\cc071y2F.s 			page 50


2513:Generated_Source\PSoC4/CyLib.c ****         *
2514:Generated_Source\PSoC4/CyLib.c ****         *  This API enables the system reset feature when the clock supervisor switches 
2515:Generated_Source\PSoC4/CyLib.c ****         *  the clock source to IMO. A programmable delay counter starts at delay count 
2516:Generated_Source\PSoC4/CyLib.c ****         *  value (see CySysClkPllCsvReloadPgmDlyCounter API) and counts down. 
2517:Generated_Source\PSoC4/CyLib.c ****         *
2518:Generated_Source\PSoC4/CyLib.c ****         *  The CSV block will assert system reset when the counter reaches zero unless 
2519:Generated_Source\PSoC4/CyLib.c ****         *  firmware intervenes and reloads the counter using 
2520:Generated_Source\PSoC4/CyLib.c ****         *  CySysClkPllCsvReloadPgmDlyCounter() API.
2521:Generated_Source\PSoC4/CyLib.c ****         *
2522:Generated_Source\PSoC4/CyLib.c ****         *  This API is available only for PSoC 4500 with PLL devices.
2523:Generated_Source\PSoC4/CyLib.c ****         *
2524:Generated_Source\PSoC4/CyLib.c ****         *  Side Effects and Restrictions:
2525:Generated_Source\PSoC4/CyLib.c ****         *  If a clock switch occurs, CSV block will reset the device when the delay 
2526:Generated_Source\PSoC4/CyLib.c ****         *  counter reaches zero unless firmware reloads the counter using 
2527:Generated_Source\PSoC4/CyLib.c ****         *  CySysClkPllCsvReloadPgmDlyCounter() API.
2528:Generated_Source\PSoC4/CyLib.c ****         *
2529:Generated_Source\PSoC4/CyLib.c ****         *******************************************************************************/  
2530:Generated_Source\PSoC4/CyLib.c ****         void CySysClkPllCsvEnableReset(void)
2531:Generated_Source\PSoC4/CyLib.c ****         {
2532:Generated_Source\PSoC4/CyLib.c ****             CY_SET_REG32_FIELD(CYREG_EXCO_RSTDLY_CTL, CYFLD_EXCO_EN, 0x1uL);
2533:Generated_Source\PSoC4/CyLib.c ****         }
2534:Generated_Source\PSoC4/CyLib.c ****         
2535:Generated_Source\PSoC4/CyLib.c **** 
2536:Generated_Source\PSoC4/CyLib.c ****         /*******************************************************************************
2537:Generated_Source\PSoC4/CyLib.c ****         * Function Name: CySysClkPllCsvDisableReset
2538:Generated_Source\PSoC4/CyLib.c ****         ****************************************************************************//**
2539:Generated_Source\PSoC4/CyLib.c ****         *
2540:Generated_Source\PSoC4/CyLib.c ****         *  This API disables the system reset feature when the clock supervisor 
2541:Generated_Source\PSoC4/CyLib.c ****         *  switches the clock source to IMO. 
2542:Generated_Source\PSoC4/CyLib.c ****         *
2543:Generated_Source\PSoC4/CyLib.c ****         *  This API is available only for PSoC 4500 with PLL devices.
2544:Generated_Source\PSoC4/CyLib.c ****         *
2545:Generated_Source\PSoC4/CyLib.c ****         *******************************************************************************/  
2546:Generated_Source\PSoC4/CyLib.c ****         void CySysClkPllCsvDisableReset(void)
2547:Generated_Source\PSoC4/CyLib.c ****         {
2548:Generated_Source\PSoC4/CyLib.c ****             CY_CLEAR_REG32_FIELD(CYREG_EXCO_RSTDLY_CTL, CYFLD_EXCO_EN);
2549:Generated_Source\PSoC4/CyLib.c ****         }
2550:Generated_Source\PSoC4/CyLib.c **** 
2551:Generated_Source\PSoC4/CyLib.c ****         
2552:Generated_Source\PSoC4/CyLib.c ****         /*******************************************************************************
2553:Generated_Source\PSoC4/CyLib.c ****         * Function Name: CySysClkPllCsvReloadPgmDlyCounter
2554:Generated_Source\PSoC4/CyLib.c ****         ****************************************************************************//**
2555:Generated_Source\PSoC4/CyLib.c ****         *
2556:Generated_Source\PSoC4/CyLib.c ****         *  This API reloads the programmable delay counter with the delay count value. 
2557:Generated_Source\PSoC4/CyLib.c ****         *
2558:Generated_Source\PSoC4/CyLib.c ****         *  This API is available only for PSoC 4500 with PLL devices.
2559:Generated_Source\PSoC4/CyLib.c ****         *
2560:Generated_Source\PSoC4/CyLib.c ****         * \param delayCount:
2561:Generated_Source\PSoC4/CyLib.c ****         *  Valid range 0-65535, device default value is 256. 
2562:Generated_Source\PSoC4/CyLib.c ****         *  Sets the # of counts of IMO clock before system reset is asserted.
2563:Generated_Source\PSoC4/CyLib.c ****         *
2564:Generated_Source\PSoC4/CyLib.c ****         *
2565:Generated_Source\PSoC4/CyLib.c ****         *******************************************************************************/           
2566:Generated_Source\PSoC4/CyLib.c ****         void CySysClkPllCsvReloadPgmDlyCounter(uint32 delayCount)
2567:Generated_Source\PSoC4/CyLib.c ****         {
2568:Generated_Source\PSoC4/CyLib.c ****             CY_SET_REG32_FIELD(CYREG_EXCO_RSTDLY, CYFLD_EXCO_DLYCOUNT, delayCount);
2569:Generated_Source\PSoC4/CyLib.c ****             CY_SET_REG32_FIELD(CYREG_EXCO_RSTDLY_CTL, CYFLD_EXCO_LOAD, 0x1uL);
ARM GAS  C:\Users\Jesus\AppData\Local\Temp\cc071y2F.s 			page 51


2570:Generated_Source\PSoC4/CyLib.c ****         }
2571:Generated_Source\PSoC4/CyLib.c **** 
2572:Generated_Source\PSoC4/CyLib.c ****     #endif /* (CY_IP_ECOV2_SRSSLT) */
2573:Generated_Source\PSoC4/CyLib.c ****     
2574:Generated_Source\PSoC4/CyLib.c **** #endif /* (CY_IP_PLL) */
2575:Generated_Source\PSoC4/CyLib.c **** 
2576:Generated_Source\PSoC4/CyLib.c **** 
2577:Generated_Source\PSoC4/CyLib.c **** #if(CY_IP_SRSSV2)
2578:Generated_Source\PSoC4/CyLib.c **** 
2579:Generated_Source\PSoC4/CyLib.c ****     /*******************************************************************************
2580:Generated_Source\PSoC4/CyLib.c ****     * Function Name: CySysLvdEnable
2581:Generated_Source\PSoC4/CyLib.c ****     ****************************************************************************//**
2582:Generated_Source\PSoC4/CyLib.c ****     *
2583:Generated_Source\PSoC4/CyLib.c ****     *  Enables the output of the low-voltage monitor when Vddd is at or below the
2584:Generated_Source\PSoC4/CyLib.c ****     *  trip point, configures the device to generate an interrupt, and sets the
2585:Generated_Source\PSoC4/CyLib.c ****     *  voltage trip level.
2586:Generated_Source\PSoC4/CyLib.c ****     *
2587:Generated_Source\PSoC4/CyLib.c ****     *  \param threshold: Threshold selection for Low Voltage Detect circuit.
2588:Generated_Source\PSoC4/CyLib.c ****     *  Threshold variation is +/- 2.5% from these typical voltage choices.
2589:Generated_Source\PSoC4/CyLib.c ****     *         Define                     Voltage threshold
2590:Generated_Source\PSoC4/CyLib.c ****     *    CY_LVD_THRESHOLD_1_75_V       1.7500 V
2591:Generated_Source\PSoC4/CyLib.c ****     *    CY_LVD_THRESHOLD_1_80_V       1.8000 V
2592:Generated_Source\PSoC4/CyLib.c ****     *    CY_LVD_THRESHOLD_1_90_V       1.9000 V
2593:Generated_Source\PSoC4/CyLib.c ****     *    CY_LVD_THRESHOLD_2_00_V       2.0000 V
2594:Generated_Source\PSoC4/CyLib.c ****     *    CY_LVD_THRESHOLD_2_10_V       2.1000 V
2595:Generated_Source\PSoC4/CyLib.c ****     *    CY_LVD_THRESHOLD_2_20_V       2.2000 V
2596:Generated_Source\PSoC4/CyLib.c ****     *    CY_LVD_THRESHOLD_2_30_V       2.3000 V
2597:Generated_Source\PSoC4/CyLib.c ****     *    CY_LVD_THRESHOLD_2_40_V       2.4000 V
2598:Generated_Source\PSoC4/CyLib.c ****     *    CY_LVD_THRESHOLD_2_50_V       2.5000 V
2599:Generated_Source\PSoC4/CyLib.c ****     *    CY_LVD_THRESHOLD_2_60_V       2.6000 V
2600:Generated_Source\PSoC4/CyLib.c ****     *    CY_LVD_THRESHOLD_2_70_V       2.7000 V
2601:Generated_Source\PSoC4/CyLib.c ****     *    CY_LVD_THRESHOLD_2_80_V       2.8000 V
2602:Generated_Source\PSoC4/CyLib.c ****     *    CY_LVD_THRESHOLD_2_90_V       2.9000 V
2603:Generated_Source\PSoC4/CyLib.c ****     *    CY_LVD_THRESHOLD_3_00_V       3.0000 V
2604:Generated_Source\PSoC4/CyLib.c ****     *    CY_LVD_THRESHOLD_3_20_V       3.2000 V
2605:Generated_Source\PSoC4/CyLib.c ****     *    CY_LVD_THRESHOLD_4_50_V       4.5000 V
2606:Generated_Source\PSoC4/CyLib.c ****     *
2607:Generated_Source\PSoC4/CyLib.c ****     *******************************************************************************/
2608:Generated_Source\PSoC4/CyLib.c ****     void CySysLvdEnable(uint32 threshold)
2609:Generated_Source\PSoC4/CyLib.c ****     {
2610:Generated_Source\PSoC4/CyLib.c ****         /* Prevent propagating a false interrupt */
2611:Generated_Source\PSoC4/CyLib.c ****         CY_LVD_PWR_INTR_MASK_REG   &= (uint32) ~CY_LVD_PROPAGATE_INT_TO_CPU;
2612:Generated_Source\PSoC4/CyLib.c **** 
2613:Generated_Source\PSoC4/CyLib.c ****         /* Set specified threshold */
2614:Generated_Source\PSoC4/CyLib.c ****         CY_LVD_PWR_VMON_CONFIG_REG = (CY_LVD_PWR_VMON_CONFIG_REG & ~CY_LVD_PWR_VMON_CONFIG_LVD_SEL_
2615:Generated_Source\PSoC4/CyLib.c ****                 ((threshold << CY_LVD_PWR_VMON_CONFIG_LVD_SEL_SHIFT) & CY_LVD_PWR_VMON_CONFIG_LVD_S
2616:Generated_Source\PSoC4/CyLib.c **** 
2617:Generated_Source\PSoC4/CyLib.c ****         /* Enable the LVD. This may cause a false LVD event. */
2618:Generated_Source\PSoC4/CyLib.c ****         CY_LVD_PWR_VMON_CONFIG_REG |= CY_LVD_PWR_VMON_CONFIG_LVD_EN;
2619:Generated_Source\PSoC4/CyLib.c **** 
2620:Generated_Source\PSoC4/CyLib.c ****         /* Wait for the circuit to stabilize */
2621:Generated_Source\PSoC4/CyLib.c ****         CyDelayUs(CY_LVD_STABILIZE_TIMEOUT_US);
2622:Generated_Source\PSoC4/CyLib.c **** 
2623:Generated_Source\PSoC4/CyLib.c ****         /* Clear the false event */
2624:Generated_Source\PSoC4/CyLib.c ****         CySysLvdClearInterrupt();
2625:Generated_Source\PSoC4/CyLib.c **** 
2626:Generated_Source\PSoC4/CyLib.c ****         /* Unmask the interrupt */
ARM GAS  C:\Users\Jesus\AppData\Local\Temp\cc071y2F.s 			page 52


2627:Generated_Source\PSoC4/CyLib.c ****         CY_LVD_PWR_INTR_MASK_REG   |= CY_LVD_PROPAGATE_INT_TO_CPU;
2628:Generated_Source\PSoC4/CyLib.c ****     }
2629:Generated_Source\PSoC4/CyLib.c **** 
2630:Generated_Source\PSoC4/CyLib.c **** 
2631:Generated_Source\PSoC4/CyLib.c ****     /*******************************************************************************
2632:Generated_Source\PSoC4/CyLib.c ****     * Function Name: CySysLvdDisable
2633:Generated_Source\PSoC4/CyLib.c ****     ****************************************************************************//**
2634:Generated_Source\PSoC4/CyLib.c ****     *
2635:Generated_Source\PSoC4/CyLib.c ****     *  Disables the low voltage detection. A low voltage interrupt is disabled.
2636:Generated_Source\PSoC4/CyLib.c ****     *
2637:Generated_Source\PSoC4/CyLib.c ****     *******************************************************************************/
2638:Generated_Source\PSoC4/CyLib.c ****     void CySysLvdDisable(void)
2639:Generated_Source\PSoC4/CyLib.c ****     {
 280              		.loc 1 2639 0
 281              		.cfi_startproc
 282              		@ args = 0, pretend = 0, frame = 0
 283              		@ frame_needed = 0, uses_anonymous_args = 0
 284              		@ link register save eliminated.
2640:Generated_Source\PSoC4/CyLib.c ****         CY_LVD_PWR_INTR_MASK_REG   &= ~CY_LVD_PROPAGATE_INT_TO_CPU;
 285              		.loc 1 2640 0
 286 0000 054A     		ldr	r2, .L22
 287 0002 1368     		ldr	r3, [r2]
 288 0004 0221     		movs	r1, #2
 289 0006 8B43     		bics	r3, r1
 290 0008 1360     		str	r3, [r2]
2641:Generated_Source\PSoC4/CyLib.c ****         CY_LVD_PWR_VMON_CONFIG_REG &= ~CY_LVD_PWR_VMON_CONFIG_LVD_EN;
 291              		.loc 1 2641 0
 292 000a 044A     		ldr	r2, .L22+4
 293 000c 1368     		ldr	r3, [r2]
 294 000e 0139     		subs	r1, r1, #1
 295 0010 8B43     		bics	r3, r1
 296 0012 1360     		str	r3, [r2]
2642:Generated_Source\PSoC4/CyLib.c ****     }
 297              		.loc 1 2642 0
 298              		@ sp needed
 299 0014 7047     		bx	lr
 300              	.L23:
 301 0016 C046     		.align	2
 302              	.L22:
 303 0018 08000B40 		.word	1074462728
 304 001c 18000B40 		.word	1074462744
 305              		.cfi_endproc
 306              	.LFE8:
 307              		.size	CySysLvdDisable, .-CySysLvdDisable
 308              		.section	.text.CySysLvdGetInterruptSource,"ax",%progbits
 309              		.align	2
 310              		.global	CySysLvdGetInterruptSource
 311              		.code	16
 312              		.thumb_func
 313              		.type	CySysLvdGetInterruptSource, %function
 314              	CySysLvdGetInterruptSource:
 315              	.LFB9:
2643:Generated_Source\PSoC4/CyLib.c **** 
2644:Generated_Source\PSoC4/CyLib.c **** 
2645:Generated_Source\PSoC4/CyLib.c ****     /*******************************************************************************
2646:Generated_Source\PSoC4/CyLib.c ****     * Function Name: CySysLvdGetInterruptSource
2647:Generated_Source\PSoC4/CyLib.c ****     ****************************************************************************//**
ARM GAS  C:\Users\Jesus\AppData\Local\Temp\cc071y2F.s 			page 53


2648:Generated_Source\PSoC4/CyLib.c ****     *
2649:Generated_Source\PSoC4/CyLib.c ****     *  Gets the low voltage detection interrupt status (without clearing).
2650:Generated_Source\PSoC4/CyLib.c ****     *
2651:Generated_Source\PSoC4/CyLib.c ****     * \return
2652:Generated_Source\PSoC4/CyLib.c ****     *  Interrupt request value:
2653:Generated_Source\PSoC4/CyLib.c ****     *    CY_SYS_LVD_INT - Indicates an Low Voltage Detect interrupt
2654:Generated_Source\PSoC4/CyLib.c ****     *
2655:Generated_Source\PSoC4/CyLib.c ****     *******************************************************************************/
2656:Generated_Source\PSoC4/CyLib.c ****     uint32 CySysLvdGetInterruptSource(void)
2657:Generated_Source\PSoC4/CyLib.c ****     {
 316              		.loc 1 2657 0
 317              		.cfi_startproc
 318              		@ args = 0, pretend = 0, frame = 0
 319              		@ frame_needed = 0, uses_anonymous_args = 0
 320              		@ link register save eliminated.
2658:Generated_Source\PSoC4/CyLib.c ****         return (CY_LVD_PWR_INTR_REG & CY_SYS_LVD_INT);
 321              		.loc 1 2658 0
 322 0000 024B     		ldr	r3, .L25
 323 0002 1B68     		ldr	r3, [r3]
 324 0004 0220     		movs	r0, #2
 325 0006 1840     		ands	r0, r3
2659:Generated_Source\PSoC4/CyLib.c ****     }
 326              		.loc 1 2659 0
 327              		@ sp needed
 328 0008 7047     		bx	lr
 329              	.L26:
 330 000a C046     		.align	2
 331              	.L25:
 332 000c 04000B40 		.word	1074462724
 333              		.cfi_endproc
 334              	.LFE9:
 335              		.size	CySysLvdGetInterruptSource, .-CySysLvdGetInterruptSource
 336              		.section	.text.CySysLvdClearInterrupt,"ax",%progbits
 337              		.align	2
 338              		.global	CySysLvdClearInterrupt
 339              		.code	16
 340              		.thumb_func
 341              		.type	CySysLvdClearInterrupt, %function
 342              	CySysLvdClearInterrupt:
 343              	.LFB10:
2660:Generated_Source\PSoC4/CyLib.c **** 
2661:Generated_Source\PSoC4/CyLib.c **** 
2662:Generated_Source\PSoC4/CyLib.c ****     /*******************************************************************************
2663:Generated_Source\PSoC4/CyLib.c ****     * Function Name: CySysLvdClearInterrupt
2664:Generated_Source\PSoC4/CyLib.c ****     ****************************************************************************//**
2665:Generated_Source\PSoC4/CyLib.c ****     *
2666:Generated_Source\PSoC4/CyLib.c ****     *  Clears the low voltage detection interrupt status.
2667:Generated_Source\PSoC4/CyLib.c ****     *
2668:Generated_Source\PSoC4/CyLib.c ****     * \return
2669:Generated_Source\PSoC4/CyLib.c ****     *  None
2670:Generated_Source\PSoC4/CyLib.c ****     *
2671:Generated_Source\PSoC4/CyLib.c ****     *******************************************************************************/
2672:Generated_Source\PSoC4/CyLib.c ****     void CySysLvdClearInterrupt(void)
2673:Generated_Source\PSoC4/CyLib.c ****     {
 344              		.loc 1 2673 0
 345              		.cfi_startproc
 346              		@ args = 0, pretend = 0, frame = 0
ARM GAS  C:\Users\Jesus\AppData\Local\Temp\cc071y2F.s 			page 54


 347              		@ frame_needed = 0, uses_anonymous_args = 0
 348              		@ link register save eliminated.
2674:Generated_Source\PSoC4/CyLib.c ****         CY_LVD_PWR_INTR_REG = CY_SYS_LVD_INT;
 349              		.loc 1 2674 0
 350 0000 0222     		movs	r2, #2
 351 0002 014B     		ldr	r3, .L28
 352 0004 1A60     		str	r2, [r3]
2675:Generated_Source\PSoC4/CyLib.c ****     }
 353              		.loc 1 2675 0
 354              		@ sp needed
 355 0006 7047     		bx	lr
 356              	.L29:
 357              		.align	2
 358              	.L28:
 359 0008 04000B40 		.word	1074462724
 360              		.cfi_endproc
 361              	.LFE10:
 362              		.size	CySysLvdClearInterrupt, .-CySysLvdClearInterrupt
 363              		.section	.text.CySysGetResetReason,"ax",%progbits
 364              		.align	2
 365              		.global	CySysGetResetReason
 366              		.code	16
 367              		.thumb_func
 368              		.type	CySysGetResetReason, %function
 369              	CySysGetResetReason:
 370              	.LFB11:
2676:Generated_Source\PSoC4/CyLib.c **** 
2677:Generated_Source\PSoC4/CyLib.c **** #endif /* (CY_IP_SRSSV2) */
2678:Generated_Source\PSoC4/CyLib.c **** 
2679:Generated_Source\PSoC4/CyLib.c **** 
2680:Generated_Source\PSoC4/CyLib.c **** /*******************************************************************************
2681:Generated_Source\PSoC4/CyLib.c **** * Function Name: CySysGetResetReason
2682:Generated_Source\PSoC4/CyLib.c **** ****************************************************************************//**
2683:Generated_Source\PSoC4/CyLib.c **** *
2684:Generated_Source\PSoC4/CyLib.c **** *  Reports the cause for the latest reset(s) that occurred in the system. All
2685:Generated_Source\PSoC4/CyLib.c **** *  the bits in the RES_CAUSE register assert when the corresponding reset cause
2686:Generated_Source\PSoC4/CyLib.c **** *  occurs and must be cleared by the firmware. These bits are cleared by the
2687:Generated_Source\PSoC4/CyLib.c **** *  hardware only during XRES, POR, or a detected brown-out.
2688:Generated_Source\PSoC4/CyLib.c **** *
2689:Generated_Source\PSoC4/CyLib.c **** *  \param reason: bits in the RES_CAUSE register to clear.
2690:Generated_Source\PSoC4/CyLib.c **** *   CY_SYS_RESET_WDT       - WDT caused a reset
2691:Generated_Source\PSoC4/CyLib.c **** *   CY_SYS_RESET_PROTFAULT - Occured protection violation that requires reset
2692:Generated_Source\PSoC4/CyLib.c **** *   CY_SYS_RESET_SW        - Cortex-M0 requested a system reset.
2693:Generated_Source\PSoC4/CyLib.c **** *
2694:Generated_Source\PSoC4/CyLib.c **** * \return
2695:Generated_Source\PSoC4/CyLib.c **** *  Status. Same enumerated bit values as used for the reason parameter.
2696:Generated_Source\PSoC4/CyLib.c **** *
2697:Generated_Source\PSoC4/CyLib.c **** *******************************************************************************/
2698:Generated_Source\PSoC4/CyLib.c **** uint32 CySysGetResetReason(uint32 reason)
2699:Generated_Source\PSoC4/CyLib.c **** {
 371              		.loc 1 2699 0
 372              		.cfi_startproc
 373              		@ args = 0, pretend = 0, frame = 0
 374              		@ frame_needed = 0, uses_anonymous_args = 0
 375              		@ link register save eliminated.
 376              	.LVL16:
 377 0000 0200     		movs	r2, r0
ARM GAS  C:\Users\Jesus\AppData\Local\Temp\cc071y2F.s 			page 55


2700:Generated_Source\PSoC4/CyLib.c ****     uint32 returnStatus;
2701:Generated_Source\PSoC4/CyLib.c **** 
2702:Generated_Source\PSoC4/CyLib.c ****     reason &= (CY_SYS_RESET_WDT | CY_SYS_RESET_PROTFAULT | CY_SYS_RESET_SW);
 378              		.loc 1 2702 0
 379 0002 1920     		movs	r0, #25
 380              	.LVL17:
 381 0004 0240     		ands	r2, r0
 382              	.LVL18:
2703:Generated_Source\PSoC4/CyLib.c ****     returnStatus = CY_SYS_RES_CAUSE_REG &
 383              		.loc 1 2703 0
 384 0006 0249     		ldr	r1, .L31
 385 0008 0B68     		ldr	r3, [r1]
 386 000a 1840     		ands	r0, r3
 387              	.LVL19:
2704:Generated_Source\PSoC4/CyLib.c ****                   (CY_SYS_RESET_WDT | CY_SYS_RESET_PROTFAULT | CY_SYS_RESET_SW);
2705:Generated_Source\PSoC4/CyLib.c ****     CY_SYS_RES_CAUSE_REG = reason;
 388              		.loc 1 2705 0
 389 000c 0A60     		str	r2, [r1]
2706:Generated_Source\PSoC4/CyLib.c **** 
2707:Generated_Source\PSoC4/CyLib.c ****     return (returnStatus);
2708:Generated_Source\PSoC4/CyLib.c **** }
 390              		.loc 1 2708 0
 391              		@ sp needed
 392 000e 7047     		bx	lr
 393              	.L32:
 394              		.align	2
 395              	.L31:
 396 0010 00030B40 		.word	1074463488
 397              		.cfi_endproc
 398              	.LFE11:
 399              		.size	CySysGetResetReason, .-CySysGetResetReason
 400              		.section	.text.CyDisableInts,"ax",%progbits
 401              		.align	2
 402              		.global	CyDisableInts
 403              		.code	16
 404              		.thumb_func
 405              		.type	CyDisableInts, %function
 406              	CyDisableInts:
 407              	.LFB12:
2709:Generated_Source\PSoC4/CyLib.c **** 
2710:Generated_Source\PSoC4/CyLib.c **** 
2711:Generated_Source\PSoC4/CyLib.c **** /*******************************************************************************
2712:Generated_Source\PSoC4/CyLib.c **** * Function Name: CyDisableInts
2713:Generated_Source\PSoC4/CyLib.c **** ****************************************************************************//**
2714:Generated_Source\PSoC4/CyLib.c **** *
2715:Generated_Source\PSoC4/CyLib.c **** *  Disables all interrupts.
2716:Generated_Source\PSoC4/CyLib.c **** *
2717:Generated_Source\PSoC4/CyLib.c **** * \return
2718:Generated_Source\PSoC4/CyLib.c **** *  32 bit mask of previously enabled interrupts.
2719:Generated_Source\PSoC4/CyLib.c **** *
2720:Generated_Source\PSoC4/CyLib.c **** *******************************************************************************/
2721:Generated_Source\PSoC4/CyLib.c **** uint32 CyDisableInts(void)
2722:Generated_Source\PSoC4/CyLib.c **** {
 408              		.loc 1 2722 0
 409              		.cfi_startproc
 410              		@ args = 0, pretend = 0, frame = 0
 411              		@ frame_needed = 0, uses_anonymous_args = 0
ARM GAS  C:\Users\Jesus\AppData\Local\Temp\cc071y2F.s 			page 56


 412              		@ link register save eliminated.
2723:Generated_Source\PSoC4/CyLib.c ****     uint32 intState;
2724:Generated_Source\PSoC4/CyLib.c **** 
2725:Generated_Source\PSoC4/CyLib.c ****     /* Get current interrupt state. */
2726:Generated_Source\PSoC4/CyLib.c ****     intState = CY_INT_CLEAR_REG;
 413              		.loc 1 2726 0
 414 0000 024B     		ldr	r3, .L34
 415 0002 1868     		ldr	r0, [r3]
 416              	.LVL20:
2727:Generated_Source\PSoC4/CyLib.c **** 
2728:Generated_Source\PSoC4/CyLib.c ****     /* Disable all interrupts. */
2729:Generated_Source\PSoC4/CyLib.c ****     CY_INT_CLEAR_REG = CY_INT_CLEAR_DISABLE_ALL;
 417              		.loc 1 2729 0
 418 0004 0122     		movs	r2, #1
 419 0006 5242     		rsbs	r2, r2, #0
 420 0008 1A60     		str	r2, [r3]
2730:Generated_Source\PSoC4/CyLib.c **** 
2731:Generated_Source\PSoC4/CyLib.c ****     return (intState);
2732:Generated_Source\PSoC4/CyLib.c **** }
 421              		.loc 1 2732 0
 422              		@ sp needed
 423 000a 7047     		bx	lr
 424              	.L35:
 425              		.align	2
 426              	.L34:
 427 000c 80E100E0 		.word	-536813184
 428              		.cfi_endproc
 429              	.LFE12:
 430              		.size	CyDisableInts, .-CyDisableInts
 431              		.section	.text.CyEnableInts,"ax",%progbits
 432              		.align	2
 433              		.global	CyEnableInts
 434              		.code	16
 435              		.thumb_func
 436              		.type	CyEnableInts, %function
 437              	CyEnableInts:
 438              	.LFB13:
2733:Generated_Source\PSoC4/CyLib.c **** 
2734:Generated_Source\PSoC4/CyLib.c **** 
2735:Generated_Source\PSoC4/CyLib.c **** /*******************************************************************************
2736:Generated_Source\PSoC4/CyLib.c **** * Function Name: CyEnableInts
2737:Generated_Source\PSoC4/CyLib.c **** ****************************************************************************//**
2738:Generated_Source\PSoC4/CyLib.c **** *
2739:Generated_Source\PSoC4/CyLib.c **** *  Enables interrupts to a given state.
2740:Generated_Source\PSoC4/CyLib.c **** *
2741:Generated_Source\PSoC4/CyLib.c **** *  \param mask The 32 bit mask of interrupts to enable.
2742:Generated_Source\PSoC4/CyLib.c **** *
2743:Generated_Source\PSoC4/CyLib.c **** *******************************************************************************/
2744:Generated_Source\PSoC4/CyLib.c **** void CyEnableInts(uint32 mask)
2745:Generated_Source\PSoC4/CyLib.c **** {
 439              		.loc 1 2745 0
 440              		.cfi_startproc
 441              		@ args = 0, pretend = 0, frame = 0
 442              		@ frame_needed = 0, uses_anonymous_args = 0
 443              		@ link register save eliminated.
 444              	.LVL21:
2746:Generated_Source\PSoC4/CyLib.c ****     CY_INT_ENABLE_REG = mask;
ARM GAS  C:\Users\Jesus\AppData\Local\Temp\cc071y2F.s 			page 57


 445              		.loc 1 2746 0
 446 0000 014B     		ldr	r3, .L37
 447 0002 1860     		str	r0, [r3]
2747:Generated_Source\PSoC4/CyLib.c **** }
 448              		.loc 1 2747 0
 449              		@ sp needed
 450 0004 7047     		bx	lr
 451              	.L38:
 452 0006 C046     		.align	2
 453              	.L37:
 454 0008 00E100E0 		.word	-536813312
 455              		.cfi_endproc
 456              	.LFE13:
 457              		.size	CyEnableInts, .-CyEnableInts
 458              		.section	.text.CyIntEnable,"ax",%progbits
 459              		.align	2
 460              		.global	CyIntEnable
 461              		.code	16
 462              		.thumb_func
 463              		.type	CyIntEnable, %function
 464              	CyIntEnable:
 465              	.LFB20:
2748:Generated_Source\PSoC4/CyLib.c **** 
2749:Generated_Source\PSoC4/CyLib.c **** 
2750:Generated_Source\PSoC4/CyLib.c **** /*******************************************************************************
2751:Generated_Source\PSoC4/CyLib.c **** * Function Name: CyIntSetSysVector
2752:Generated_Source\PSoC4/CyLib.c **** ****************************************************************************//**
2753:Generated_Source\PSoC4/CyLib.c **** *
2754:Generated_Source\PSoC4/CyLib.c **** *  Sets the interrupt vector of the specified system interrupt number. These
2755:Generated_Source\PSoC4/CyLib.c **** *  interrupts are for SysTick, PendSV and others.
2756:Generated_Source\PSoC4/CyLib.c **** *
2757:Generated_Source\PSoC4/CyLib.c **** *  \param number: System interrupt number:
2758:Generated_Source\PSoC4/CyLib.c **** *    CY_INT_NMI_IRQN        - Non Maskable Interrupt
2759:Generated_Source\PSoC4/CyLib.c **** *    CY_INT_HARD_FAULT_IRQN - Hard Fault Interrupt
2760:Generated_Source\PSoC4/CyLib.c **** *    CY_INT_SVCALL_IRQN     - SV Call Interrupt
2761:Generated_Source\PSoC4/CyLib.c **** *    CY_INT_PEND_SV_IRQN    - Pend SV Interrupt
2762:Generated_Source\PSoC4/CyLib.c **** *    CY_INT_SYSTICK_IRQN    - System Tick Interrupt
2763:Generated_Source\PSoC4/CyLib.c **** *
2764:Generated_Source\PSoC4/CyLib.c **** *  \param address Pointer to an interrupt service routine.
2765:Generated_Source\PSoC4/CyLib.c **** *
2766:Generated_Source\PSoC4/CyLib.c **** * \return The old ISR vector at this location.
2767:Generated_Source\PSoC4/CyLib.c **** *
2768:Generated_Source\PSoC4/CyLib.c **** *******************************************************************************/
2769:Generated_Source\PSoC4/CyLib.c **** cyisraddress CyIntSetSysVector(uint8 number, cyisraddress address)
2770:Generated_Source\PSoC4/CyLib.c **** {
2771:Generated_Source\PSoC4/CyLib.c ****     cyisraddress oldIsr;
2772:Generated_Source\PSoC4/CyLib.c ****     cyisraddress *ramVectorTable = (cyisraddress *) CY_INT_VECT_TABLE;
2773:Generated_Source\PSoC4/CyLib.c **** 
2774:Generated_Source\PSoC4/CyLib.c ****     CYASSERT(number < CY_INT_IRQ_BASE);
2775:Generated_Source\PSoC4/CyLib.c **** 
2776:Generated_Source\PSoC4/CyLib.c ****     /* Save old Interrupt service routine. */
2777:Generated_Source\PSoC4/CyLib.c ****     oldIsr = ramVectorTable[number];
2778:Generated_Source\PSoC4/CyLib.c **** 
2779:Generated_Source\PSoC4/CyLib.c ****     /* Set new Interrupt service routine. */
2780:Generated_Source\PSoC4/CyLib.c ****     ramVectorTable[number] = address;
2781:Generated_Source\PSoC4/CyLib.c **** 
2782:Generated_Source\PSoC4/CyLib.c ****     return(oldIsr);
ARM GAS  C:\Users\Jesus\AppData\Local\Temp\cc071y2F.s 			page 58


2783:Generated_Source\PSoC4/CyLib.c **** }
2784:Generated_Source\PSoC4/CyLib.c **** 
2785:Generated_Source\PSoC4/CyLib.c **** 
2786:Generated_Source\PSoC4/CyLib.c **** /*******************************************************************************
2787:Generated_Source\PSoC4/CyLib.c **** * Function Name: CyIntGetSysVector
2788:Generated_Source\PSoC4/CyLib.c **** ****************************************************************************//**
2789:Generated_Source\PSoC4/CyLib.c **** *
2790:Generated_Source\PSoC4/CyLib.c **** *   Gets the interrupt vector of the specified system interrupt number. These
2791:Generated_Source\PSoC4/CyLib.c **** *   interrupts are for SysTick, PendSV and others.
2792:Generated_Source\PSoC4/CyLib.c **** *
