ARM GAS  C:\Users\Jesus\AppData\Local\Temp\ccXfJYpd.s 			page 1


   1              		.syntax unified
   2              		.cpu cortex-m0
   3              		.fpu softvfp
   4              		.eabi_attribute 20, 1
   5              		.eabi_attribute 21, 1
   6              		.eabi_attribute 23, 3
   7              		.eabi_attribute 24, 1
   8              		.eabi_attribute 25, 1
   9              		.eabi_attribute 26, 1
  10              		.eabi_attribute 30, 1
  11              		.eabi_attribute 34, 0
  12              		.eabi_attribute 18, 4
  13              		.thumb
  14              		.syntax unified
  15              		.file	"main.c"
  16              		.text
  17              	.Ltext0:
  18              		.cfi_sections	.debug_frame
  19              		.section	.text.ISR_Reset_Handler,"ax",%progbits
  20              		.align	2
  21              		.global	ISR_Reset_Handler
  22              		.code	16
  23              		.thumb_func
  24              		.type	ISR_Reset_Handler, %function
  25              	ISR_Reset_Handler:
  26              	.LFB32:
  27              		.file 1 "main.c"
   1:main.c        **** /* ========================================
   2:main.c        ****  *
   3:main.c        ****  * Copyright YOUR COMPANY, THE YEAR
   4:main.c        ****  * All Rights Reserved
   5:main.c        ****  * UNPUBLISHED, LICENSED SOFTWARE.
   6:main.c        ****  *
   7:main.c        ****  * CONFIDENTIAL AND PROPRIETARY INFORMATION
   8:main.c        ****  * WHICH IS THE PROPERTY OF your company.
   9:main.c        ****  *
  10:main.c        ****  * ========================================
  11:main.c        **** */
  12:main.c        **** #include "project.h"
  13:main.c        **** #include "UC1608.h"
  14:main.c        **** 
  15:main.c        **** //#define SERIAL_PORT_SEND_DATA
  16:main.c        **** #define SERIAL_PORT_SEND_PROCCESSED
  17:main.c        **** 
  18:main.c        **** /* ************************************************************************* */
  19:main.c        **** enum { IDLE, DATA0, DATA1, DATA2 } BUS_STATE;
  20:main.c        **** 
  21:main.c        **** volatile    uint8 bus_state = IDLE;
  22:main.c        **** 
  23:main.c        **** volatile    uint8 data_buffer[2000];
  24:main.c        **** volatile    uint16 data_buffer_ptr = 0;
  25:main.c        **** 
  26:main.c        **** volatile    uint8 data_ready = 0;
  27:main.c        **** 
  28:main.c        **** volatile    uint8 enable_capture = 0;
  29:main.c        **** 
  30:main.c        **** volatile    uint8 combined_data = 0;
ARM GAS  C:\Users\Jesus\AppData\Local\Temp\ccXfJYpd.s 			page 2


  31:main.c        **** volatile    uint8 page_counter = 0;
  32:main.c        **** volatile    uint8 column_counter = 0;
  33:main.c        **** volatile    uint8 is_first_byte = 1;
  34:main.c        **** 
  35:main.c        **** volatile    uint8 display_set_normal = 0;
  36:main.c        **** volatile    uint8 display_set_reverse = 0;
  37:main.c        **** 
  38:main.c        **** /* Interrupt prototypes */
  39:main.c        **** CY_ISR_PROTO(ISR_Reset_Handler);
  40:main.c        **** CY_ISR_PROTO(ISR_Capture);
  41:main.c        **** 
  42:main.c        **** void Uart_SendCommandString(uint8 command);
  43:main.c        **** 
  44:main.c        **** /* ************************************************************************* */
  45:main.c        **** 
  46:main.c        **** 
  47:main.c        **** /* Manage interrupt from RESET. */
  48:main.c        **** CY_ISR(ISR_Reset_Handler)
  49:main.c        **** {
  28              		.loc 1 49 0
  29              		.cfi_startproc
  30              		@ args = 0, pretend = 0, frame = 0
  31              		@ frame_needed = 0, uses_anonymous_args = 0
  32              		@ link register save eliminated.
  50:main.c        **** }
  33              		.loc 1 50 0
  34              		@ sp needed
  35 0000 7047     		bx	lr
  36              		.cfi_endproc
  37              	.LFE32:
  38              		.size	ISR_Reset_Handler, .-ISR_Reset_Handler
  39 0002 C046     		.section	.text.ISR_Capture_Handler,"ax",%progbits
  40              		.align	2
  41              		.global	ISR_Capture_Handler
  42              		.code	16
  43              		.thumb_func
  44              		.type	ISR_Capture_Handler, %function
  45              	ISR_Capture_Handler:
  46              	.LFB33:
  51:main.c        **** 
  52:main.c        **** /* Manage interrupt for command capture. */
  53:main.c        **** CY_ISR(ISR_Capture_Handler)
  54:main.c        **** {
  47              		.loc 1 54 0
  48              		.cfi_startproc
  49              		@ args = 0, pretend = 0, frame = 0
  50              		@ frame_needed = 0, uses_anonymous_args = 0
  51 0000 F8B5     		push	{r3, r4, r5, r6, r7, lr}
  52              		.cfi_def_cfa_offset 24
  53              		.cfi_offset 3, -24
  54              		.cfi_offset 4, -20
  55              		.cfi_offset 5, -16
  56              		.cfi_offset 6, -12
  57              		.cfi_offset 7, -8
  58              		.cfi_offset 14, -4
  55:main.c        ****     uint8 a0_state = A0_Read();
  59              		.loc 1 55 0
ARM GAS  C:\Users\Jesus\AppData\Local\Temp\ccXfJYpd.s 			page 3


  60 0002 FFF7FEFF 		bl	A0_Read
  61              	.LVL0:
  62 0006 0400     		movs	r4, r0
  63              	.LVL1:
  56:main.c        ****     uint8 e_state = E_Read();
  64              		.loc 1 56 0
  65 0008 FFF7FEFF 		bl	E_Read
  66              	.LVL2:
  67 000c 0500     		movs	r5, r0
  68              	.LVL3:
  57:main.c        ****     
  58:main.c        ****     uint8 bdata = IData_Port_Read();
  69              		.loc 1 58 0
  70 000e FFF7FEFF 		bl	IData_Port_Read
  71              	.LVL4:
  72 0012 0200     		movs	r2, r0
  73              	.LVL5:
  59:main.c        ****     
  60:main.c        ****     /* *** Waiting for command "data write". *** */
  61:main.c        ****     if (bus_state == IDLE)
  74              		.loc 1 61 0
  75 0014 574B     		ldr	r3, .L13
  76 0016 1B78     		ldrb	r3, [r3]
  77 0018 002B     		cmp	r3, #0
  78 001a 1BD1     		bne	.L3
  62:main.c        ****     {
  63:main.c        ****         if ((e_state == 1) && (a0_state == 0))
  79              		.loc 1 63 0
  80 001c 012D     		cmp	r5, #1
  81 001e 00D0     		beq	.LCB42
  82 0020 A7E0     		b	.L2	@long jump
  83              	.LCB42:
  84              		.loc 1 63 0 is_stmt 0 discriminator 1
  85 0022 002C     		cmp	r4, #0
  86 0024 00D0     		beq	.LCB44
  87 0026 A4E0     		b	.L2	@long jump
  88              	.LCB44:
  64:main.c        ****         {
  65:main.c        ****             if (bdata == 0b00011101)                                            // 0b00011101 = Dis
  89              		.loc 1 65 0 is_stmt 1
  90 0028 1D28     		cmp	r0, #29
  91 002a 07D1     		bne	.L5
  66:main.c        ****             {
  67:main.c        ****                 page_counter = column_counter = data_buffer_ptr = 0;            // Initialize count
  92              		.loc 1 67 0
  93 002c 514B     		ldr	r3, .L13
  94 002e 0021     		movs	r1, #0
  95 0030 0020     		movs	r0, #0
  96              	.LVL6:
  97 0032 5880     		strh	r0, [r3, #2]
  98 0034 1971     		strb	r1, [r3, #4]
  99 0036 5971     		strb	r1, [r3, #5]
  68:main.c        ****                 bus_state = DATA0;
 100              		.loc 1 68 0
 101 0038 0121     		movs	r1, #1
 102 003a 1970     		strb	r1, [r3]
 103              	.L5:
ARM GAS  C:\Users\Jesus\AppData\Local\Temp\ccXfJYpd.s 			page 4


  69:main.c        ****             }
  70:main.c        ****             
  71:main.c        ****             if (bdata == 0b10100110) display_set_normal = 1;                    // Display normal.
 104              		.loc 1 71 0
 105 003c A62A     		cmp	r2, #166
 106 003e 02D1     		bne	.L6
 107              		.loc 1 71 0 is_stmt 0 discriminator 1
 108 0040 0121     		movs	r1, #1
 109 0042 4C4B     		ldr	r3, .L13
 110 0044 9971     		strb	r1, [r3, #6]
 111              	.L6:
  72:main.c        ****             if (bdata == 0b10100111) display_set_reverse = 1;                   // Display reverse.
 112              		.loc 1 72 0 is_stmt 1
 113 0046 A72A     		cmp	r2, #167
 114 0048 00D0     		beq	.LCB66
 115 004a 92E0     		b	.L2	@long jump
 116              	.LCB66:
 117              		.loc 1 72 0 is_stmt 0 discriminator 1
 118 004c A63A     		subs	r2, r2, #166
 119 004e 494B     		ldr	r3, .L13
 120 0050 DA71     		strb	r2, [r3, #7]
 121 0052 8EE0     		b	.L2
 122              	.LVL7:
 123              	.L3:
  73:main.c        ****         }
  74:main.c        ****     }
  75:main.c        ****     /* *** First byte received is a dummy byte. We discard it. *** */
  76:main.c        ****     else if (bus_state == DATA0) 
 124              		.loc 1 76 0 is_stmt 1
 125 0054 474B     		ldr	r3, .L13
 126 0056 1B78     		ldrb	r3, [r3]
 127 0058 012B     		cmp	r3, #1
 128 005a 03D1     		bne	.L7
  77:main.c        ****     {
  78:main.c        ****         bus_state = DATA1;
 129              		.loc 1 78 0
 130 005c 0222     		movs	r2, #2
 131 005e 454B     		ldr	r3, .L13
 132 0060 1A70     		strb	r2, [r3]
 133 0062 86E0     		b	.L2
 134              	.L7:
  79:main.c        ****     }
  80:main.c        ****     /* *** Received even page byte. *** */
  81:main.c        ****     else if (bus_state == DATA1)
 135              		.loc 1 81 0
 136 0064 434B     		ldr	r3, .L13
 137 0066 1B78     		ldrb	r3, [r3]
 138 0068 022B     		cmp	r3, #2
 139 006a 38D1     		bne	.L8
  82:main.c        ****     {
  83:main.c        **** 
  84:main.c        ****         if ((e_state == 0) && (a0_state == 1))
 140              		.loc 1 84 0
 141 006c 002D     		cmp	r5, #0
 142 006e 2DD1     		bne	.L9
 143              		.loc 1 84 0 is_stmt 0 discriminator 1
 144 0070 012C     		cmp	r4, #1
ARM GAS  C:\Users\Jesus\AppData\Local\Temp\ccXfJYpd.s 			page 5


 145 0072 2BD1     		bne	.L9
  85:main.c        ****         {
  86:main.c        ****             if ((page_counter < 16) && (column_counter < 240))                  // Data outside dis
 146              		.loc 1 86 0 is_stmt 1
 147 0074 3F4B     		ldr	r3, .L13
 148 0076 5B79     		ldrb	r3, [r3, #5]
 149 0078 DBB2     		uxtb	r3, r3
 150 007a 0F2B     		cmp	r3, #15
 151 007c 17D8     		bhi	.L10
 152              		.loc 1 86 0 is_stmt 0 discriminator 1
 153 007e 3D4B     		ldr	r3, .L13
 154 0080 1B79     		ldrb	r3, [r3, #4]
 155 0082 DBB2     		uxtb	r3, r3
 156 0084 EF2B     		cmp	r3, #239
 157 0086 12D8     		bhi	.L10
  87:main.c        ****             {
  88:main.c        ****                 combined_data = (bdata & 0b00000001) |                          // Isolate every lo
  89:main.c        ****                                 ((bdata & 0b00000100) >> 1) |                   // lower nibble of 
 158              		.loc 1 89 0 is_stmt 1
 159 0088 4510     		asrs	r5, r0, #1
 160              	.LVL8:
  90:main.c        ****                                 ((bdata & 0b00010000) >> 2) |
 161              		.loc 1 90 0
 162 008a 8410     		asrs	r4, r0, #2
 163              	.LVL9:
  91:main.c        ****                                 ((bdata & 0b01000000) >> 3);
 164              		.loc 1 91 0
 165 008c C210     		asrs	r2, r0, #3
  88:main.c        ****                                 ((bdata & 0b00000100) >> 1) |                   // lower nibble of 
 166              		.loc 1 88 0
 167 008e 0121     		movs	r1, #1
 168 0090 0840     		ands	r0, r1
 169              	.LVL10:
 170 0092 0223     		movs	r3, #2
 171 0094 2B40     		ands	r3, r5
 172 0096 1843     		orrs	r0, r3
 173 0098 0423     		movs	r3, #4
 174 009a 2340     		ands	r3, r4
 175 009c 0100     		movs	r1, r0
 176 009e 1943     		orrs	r1, r3
 177 00a0 0823     		movs	r3, #8
 178 00a2 1340     		ands	r3, r2
 179 00a4 0B43     		orrs	r3, r1
 180 00a6 334A     		ldr	r2, .L13
 181 00a8 1372     		strb	r3, [r2, #8]
  92:main.c        ****                                 
  93:main.c        ****                 bus_state = DATA2;
 182              		.loc 1 93 0
 183 00aa 0323     		movs	r3, #3
 184 00ac 1370     		strb	r3, [r2]
 185              	.L10:
  94:main.c        ****             }
  95:main.c        ****                             
  96:main.c        ****             page_counter++;
 186              		.loc 1 96 0
 187 00ae 314A     		ldr	r2, .L13
 188 00b0 5379     		ldrb	r3, [r2, #5]
ARM GAS  C:\Users\Jesus\AppData\Local\Temp\ccXfJYpd.s 			page 6


 189 00b2 0133     		adds	r3, r3, #1
 190 00b4 DBB2     		uxtb	r3, r3
 191 00b6 5371     		strb	r3, [r2, #5]
  97:main.c        ****             if (page_counter == 21) 
 192              		.loc 1 97 0
 193 00b8 5379     		ldrb	r3, [r2, #5]
 194 00ba 152B     		cmp	r3, #21
 195 00bc 59D1     		bne	.L2
  98:main.c        ****             {
  99:main.c        ****                 page_counter = 0; 
 196              		.loc 1 99 0
 197 00be 0023     		movs	r3, #0
 198 00c0 5371     		strb	r3, [r2, #5]
 100:main.c        ****                 column_counter++;
 199              		.loc 1 100 0
 200 00c2 1379     		ldrb	r3, [r2, #4]
 201 00c4 0133     		adds	r3, r3, #1
 202 00c6 DBB2     		uxtb	r3, r3
 203 00c8 1371     		strb	r3, [r2, #4]
 204 00ca 52E0     		b	.L2
 205              	.LVL11:
 206              	.L9:
 101:main.c        ****             }
 102:main.c        ****         }
 103:main.c        ****         else if ( e_state == 1 )
 207              		.loc 1 103 0
 208 00cc 012D     		cmp	r5, #1
 209 00ce 50D1     		bne	.L2
 104:main.c        ****         {
 105:main.c        ****             data_ready = 1;
 210              		.loc 1 105 0
 211 00d0 284B     		ldr	r3, .L13
 212 00d2 0122     		movs	r2, #1
 213 00d4 5A72     		strb	r2, [r3, #9]
 106:main.c        ****             bus_state = IDLE;
 214              		.loc 1 106 0
 215 00d6 0022     		movs	r2, #0
 216 00d8 1A70     		strb	r2, [r3]
 107:main.c        ****             CyGlobalIntDisable;
 217              		.loc 1 107 0
 218              		.syntax divided
 219              	@ 107 "main.c" 1
 220 00da 72B6     		CPSID   i
 221              	@ 0 "" 2
 222              		.thumb
 223              		.syntax unified
 224 00dc 49E0     		b	.L2
 225              	.L8:
 108:main.c        ****         }
 109:main.c        **** 
 110:main.c        ****     }
 111:main.c        ****     /* *** Received odd page byte. *** */
 112:main.c        ****     else if (bus_state == DATA2)
 226              		.loc 1 112 0
 227 00de 254B     		ldr	r3, .L13
 228 00e0 1B78     		ldrb	r3, [r3]
 229 00e2 032B     		cmp	r3, #3
ARM GAS  C:\Users\Jesus\AppData\Local\Temp\ccXfJYpd.s 			page 7


 230 00e4 45D1     		bne	.L2
 113:main.c        ****     {
 114:main.c        ****         if ((e_state == 0) && (a0_state == 1))
 231              		.loc 1 114 0
 232 00e6 002D     		cmp	r5, #0
 233 00e8 3BD1     		bne	.L11
 234              		.loc 1 114 0 is_stmt 0 discriminator 1
 235 00ea 012C     		cmp	r4, #1
 236 00ec 39D1     		bne	.L11
 115:main.c        ****         {
 116:main.c        ****             if ((page_counter < 16) && (column_counter < 240))                  // Data outside dis
 237              		.loc 1 116 0 is_stmt 1
 238 00ee 214B     		ldr	r3, .L13
 239 00f0 5B79     		ldrb	r3, [r3, #5]
 240 00f2 DBB2     		uxtb	r3, r3
 241 00f4 0F2B     		cmp	r3, #15
 242 00f6 25D8     		bhi	.L12
 243              		.loc 1 116 0 is_stmt 0 discriminator 1
 244 00f8 1E4B     		ldr	r3, .L13
 245 00fa 1B79     		ldrb	r3, [r3, #4]
 246 00fc DBB2     		uxtb	r3, r3
 247 00fe EF2B     		cmp	r3, #239
 248 0100 20D8     		bhi	.L12
 117:main.c        ****             {
 118:main.c        ****                 combined_data = combined_data | ((bdata & 0b00000001) << 4) |   // Isolate every lo
 249              		.loc 1 118 0 is_stmt 1
 250 0102 0701     		lsls	r7, r0, #4
 251 0104 1B4B     		ldr	r3, .L13
 252 0106 1C7A     		ldrb	r4, [r3, #8]
 253              	.LVL12:
 119:main.c        ****                                                 ((bdata & 0b00000100) << 3) |   // higher nibble of
 254              		.loc 1 119 0
 255 0108 C500     		lsls	r5, r0, #3
 256              	.LVL13:
 120:main.c        ****                                                 ((bdata & 0b00010000) << 2) |   // Combine it with 
 257              		.loc 1 120 0
 258 010a 8100     		lsls	r1, r0, #2
 121:main.c        ****                                                 ((bdata & 0b01000000) << 1);
 259              		.loc 1 121 0
 260 010c 4000     		lsls	r0, r0, #1
 261              	.LVL14:
 118:main.c        ****                                                 ((bdata & 0b00000100) << 3) |   // higher nibble of
 262              		.loc 1 118 0
 263 010e 1026     		movs	r6, #16
 264 0110 3200     		movs	r2, r6
 265 0112 3A40     		ands	r2, r7
 266 0114 1443     		orrs	r4, r2
 267 0116 2022     		movs	r2, #32
 268 0118 2A40     		ands	r2, r5
 269 011a 1443     		orrs	r4, r2
 270 011c 4022     		movs	r2, #64
 271 011e 0A40     		ands	r2, r1
 272 0120 2243     		orrs	r2, r4
 273 0122 7F21     		movs	r1, #127
 274 0124 8843     		bics	r0, r1
 275 0126 0243     		orrs	r2, r0
 276 0128 D2B2     		uxtb	r2, r2
ARM GAS  C:\Users\Jesus\AppData\Local\Temp\ccXfJYpd.s 			page 8


 277 012a 1A72     		strb	r2, [r3, #8]
 122:main.c        ****                                                 
 123:main.c        ****                 bus_state = DATA1;
 278              		.loc 1 123 0
 279 012c 0222     		movs	r2, #2
 280 012e 1A70     		strb	r2, [r3]
 124:main.c        ****                                                 
 125:main.c        ****                 data_buffer[data_buffer_ptr] = combined_data;
 281              		.loc 1 125 0
 282 0130 5A88     		ldrh	r2, [r3, #2]
 283 0132 92B2     		uxth	r2, r2
 284 0134 197A     		ldrb	r1, [r3, #8]
 285 0136 C9B2     		uxtb	r1, r1
 286 0138 0F48     		ldr	r0, .L13+4
 287 013a 8154     		strb	r1, [r0, r2]
 126:main.c        ****                 data_buffer_ptr++;
 288              		.loc 1 126 0
 289 013c 5A88     		ldrh	r2, [r3, #2]
 290 013e 0132     		adds	r2, r2, #1
 291 0140 92B2     		uxth	r2, r2
 292 0142 5A80     		strh	r2, [r3, #2]
 293              	.L12:
 127:main.c        ****             }
 128:main.c        ****                                             
 129:main.c        ****             page_counter++;
 294              		.loc 1 129 0
 295 0144 0B4A     		ldr	r2, .L13
 296 0146 5379     		ldrb	r3, [r2, #5]
 297 0148 0133     		adds	r3, r3, #1
 298 014a DBB2     		uxtb	r3, r3
 299 014c 5371     		strb	r3, [r2, #5]
 130:main.c        ****             if (page_counter == 21) 
 300              		.loc 1 130 0
 301 014e 5379     		ldrb	r3, [r2, #5]
 302 0150 152B     		cmp	r3, #21
 303 0152 0ED1     		bne	.L2
 131:main.c        ****             {
 132:main.c        ****                 page_counter = 0; 
 304              		.loc 1 132 0
 305 0154 0023     		movs	r3, #0
 306 0156 5371     		strb	r3, [r2, #5]
 133:main.c        ****                 column_counter++;
 307              		.loc 1 133 0
 308 0158 1379     		ldrb	r3, [r2, #4]
 309 015a 0133     		adds	r3, r3, #1
 310 015c DBB2     		uxtb	r3, r3
 311 015e 1371     		strb	r3, [r2, #4]
 312 0160 07E0     		b	.L2
 313              	.LVL15:
 314              	.L11:
 134:main.c        ****             }                                             
 135:main.c        ****         }
 136:main.c        ****         else if ( e_state == 1 )                                                
 315              		.loc 1 136 0
 316 0162 012D     		cmp	r5, #1
 317 0164 05D1     		bne	.L2
 137:main.c        ****         {
ARM GAS  C:\Users\Jesus\AppData\Local\Temp\ccXfJYpd.s 			page 9


 138:main.c        ****             data_ready = 1;                                                     // All data has bee
 318              		.loc 1 138 0
 319 0166 034B     		ldr	r3, .L13
 320 0168 0122     		movs	r2, #1
 321 016a 5A72     		strb	r2, [r3, #9]
 139:main.c        ****             bus_state = IDLE;                                                   // monocrome and st
 322              		.loc 1 139 0
 323 016c 0022     		movs	r2, #0
 324 016e 1A70     		strb	r2, [r3]
 140:main.c        ****             CyGlobalIntDisable;                                                 // Set data_ready f
 325              		.loc 1 140 0
 326              		.syntax divided
 327              	@ 140 "main.c" 1
 328 0170 72B6     		CPSID   i
 329              	@ 0 "" 2
 330              	.LVL16:
 331              		.thumb
 332              		.syntax unified
 333              	.L2:
 141:main.c        ****         }
 142:main.c        ****     }    
 143:main.c        **** }
 334              		.loc 1 143 0
 335              		@ sp needed
 336 0172 F8BD     		pop	{r3, r4, r5, r6, r7, pc}
 337              	.L14:
 338              		.align	2
 339              	.L13:
 340 0174 00000000 		.word	.LANCHOR0
 341 0178 00000000 		.word	data_buffer
 342              		.cfi_endproc
 343              	.LFE33:
 344              		.size	ISR_Capture_Handler, .-ISR_Capture_Handler
 345              		.section	.text.main,"ax",%progbits
 346              		.align	2
 347              		.global	main
 348              		.code	16
 349              		.thumb_func
 350              		.type	main, %function
 351              	main:
 352              	.LFB34:
 144:main.c        **** 
 145:main.c        **** /* ************************************************************************* */
 146:main.c        **** 
 147:main.c        **** int main(void)
 148:main.c        **** {
 353              		.loc 1 148 0
 354              		.cfi_startproc
 355              		@ args = 0, pretend = 0, frame = 0
 356              		@ frame_needed = 0, uses_anonymous_args = 0
 357 0000 70B5     		push	{r4, r5, r6, lr}
 358              		.cfi_def_cfa_offset 16
 359              		.cfi_offset 4, -16
 360              		.cfi_offset 5, -12
 361              		.cfi_offset 6, -8
 362              		.cfi_offset 14, -4
 149:main.c        ****     uint8 page, column;
ARM GAS  C:\Users\Jesus\AppData\Local\Temp\ccXfJYpd.s 			page 10


 150:main.c        ****     
 151:main.c        ****     /* Configure and enable interrupts. */
 152:main.c        ****     ISR_Reset_StartEx(ISR_Reset_Handler);
 363              		.loc 1 152 0
 364 0002 2548     		ldr	r0, .L24
 365 0004 FFF7FEFF 		bl	ISR_Reset_StartEx
 366              	.LVL17:
 153:main.c        ****     ISR_Capture_StartEx(ISR_Capture_Handler);
 367              		.loc 1 153 0
 368 0008 2448     		ldr	r0, .L24+4
 369 000a FFF7FEFF 		bl	ISR_Capture_StartEx
 370              	.LVL18:
 154:main.c        ****     //CyGlobalIntEnable;
 155:main.c        ****     
 156:main.c        ****     /* Init SPILCD. */
 157:main.c        ****     SPILCD_Start();
 371              		.loc 1 157 0
 372 000e FFF7FEFF 		bl	SPILCD_Start
 373              	.LVL19:
 158:main.c        ****     
 159:main.c        ****     /* Initialize the display. */
 160:main.c        ****     LCD_Init();
 374              		.loc 1 160 0
 375 0012 FFF7FEFF 		bl	LCD_Init
 376              	.LVL20:
 161:main.c        ****     LCD_Clear();     
 377              		.loc 1 161 0
 378 0016 FFF7FEFF 		bl	LCD_Clear
 379              	.LVL21:
 162:main.c        ****           
 163:main.c        ****     LCD_SetPageAddress(0);
 380              		.loc 1 163 0
 381 001a 0020     		movs	r0, #0
 382 001c FFF7FEFF 		bl	LCD_SetPageAddress
 383              	.LVL22:
 164:main.c        ****     LCD_SetColumnAddress(0);    
 384              		.loc 1 164 0
 385 0020 0020     		movs	r0, #0
 386 0022 FFF7FEFF 		bl	LCD_SetColumnAddress
 387              	.LVL23:
 165:main.c        ****     
 166:main.c        ****     enable_capture = 1;
 388              		.loc 1 166 0
 389 0026 0122     		movs	r2, #1
 390 0028 1D4B     		ldr	r3, .L24+8
 391 002a 9A72     		strb	r2, [r3, #10]
 167:main.c        ****     CyGlobalIntEnable;    
 392              		.loc 1 167 0
 393              		.syntax divided
 394              	@ 167 "main.c" 1
 395 002c 62B6     		CPSIE   i
 396              	@ 0 "" 2
 397              		.thumb
 398              		.syntax unified
 399              	.L21:
 168:main.c        **** 
 169:main.c        ****     for(;;)
ARM GAS  C:\Users\Jesus\AppData\Local\Temp\ccXfJYpd.s 			page 11


 170:main.c        ****     {
 171:main.c        ****   
 172:main.c        ****         /* --------------------------------------------- */
 173:main.c        ****         
 174:main.c        ****         if (data_ready == 1)
 400              		.loc 1 174 0
 401 002e 1C4B     		ldr	r3, .L24+8
 402 0030 5B7A     		ldrb	r3, [r3, #9]
 403 0032 012B     		cmp	r3, #1
 404 0034 1DD1     		bne	.L16
 175:main.c        ****         {
 176:main.c        ****             LCD_SetPageAddress(0);
 405              		.loc 1 176 0
 406 0036 0020     		movs	r0, #0
 407 0038 FFF7FEFF 		bl	LCD_SetPageAddress
 408              	.LVL24:
 177:main.c        ****             LCD_SetColumnAddress(0);
 409              		.loc 1 177 0
 410 003c 0020     		movs	r0, #0
 411 003e FFF7FEFF 		bl	LCD_SetColumnAddress
 412              	.LVL25:
 178:main.c        ****         
 179:main.c        ****             for (page = 0; page < 8; page++)
 413              		.loc 1 179 0
 414 0042 0025     		movs	r5, #0
 415 0044 0EE0     		b	.L17
 416              	.LVL26:
 417              	.L18:
 180:main.c        ****             {    
 181:main.c        ****                 for (column = 0; column < 240; column++)
 182:main.c        ****                 {
 183:main.c        ****                 
 184:main.c        ****                     UC1608_Write_data(data_buffer[(column * 8) + page]);
 418              		.loc 1 184 0 discriminator 3
 419 0046 E300     		lsls	r3, r4, #3
 420 0048 EB18     		adds	r3, r5, r3
 421 004a 164A     		ldr	r2, .L24+12
 422 004c D05C     		ldrb	r0, [r2, r3]
 423 004e C0B2     		uxtb	r0, r0
 424 0050 FFF7FEFF 		bl	UC1608_Write_data
 425              	.LVL27:
 181:main.c        ****                 {
 426              		.loc 1 181 0 discriminator 3
 427 0054 0134     		adds	r4, r4, #1
 428              	.LVL28:
 429 0056 E4B2     		uxtb	r4, r4
 430              	.LVL29:
 431 0058 00E0     		b	.L19
 432              	.LVL30:
 433              	.L23:
 434 005a 0024     		movs	r4, #0
 435              	.L19:
 436              	.LVL31:
 181:main.c        ****                 {
 437              		.loc 1 181 0 is_stmt 0 discriminator 1
 438 005c EF2C     		cmp	r4, #239
 439 005e F2D9     		bls	.L18
ARM GAS  C:\Users\Jesus\AppData\Local\Temp\ccXfJYpd.s 			page 12


 179:main.c        ****             {    
 440              		.loc 1 179 0 is_stmt 1 discriminator 2
 441 0060 0135     		adds	r5, r5, #1
 442              	.LVL32:
 443 0062 EDB2     		uxtb	r5, r5
 444              	.LVL33:
 445              	.L17:
 179:main.c        ****             {    
 446              		.loc 1 179 0 is_stmt 0 discriminator 1
 447 0064 072D     		cmp	r5, #7
 448 0066 F8D9     		bls	.L23
 185:main.c        ****                 }
 186:main.c        ****             }            
 187:main.c        ****             
 188:main.c        ****             if (enable_capture) CyGlobalIntEnable;
 449              		.loc 1 188 0 is_stmt 1
 450 0068 0D4B     		ldr	r3, .L24+8
 451 006a 9B7A     		ldrb	r3, [r3, #10]
 452 006c 002B     		cmp	r3, #0
 453 006e 00D0     		beq	.L16
 454              		.loc 1 188 0 is_stmt 0 discriminator 1
 455              		.syntax divided
 456              	@ 188 "main.c" 1
 457 0070 62B6     		CPSIE   i
 458              	@ 0 "" 2
 459              	.LVL34:
 460              		.thumb
 461              		.syntax unified
 462              	.L16:
 189:main.c        ****         }
 190:main.c        ****         
 191:main.c        ****         if (display_set_normal)
 463              		.loc 1 191 0 is_stmt 1
 464 0072 0B4B     		ldr	r3, .L24+8
 465 0074 9B79     		ldrb	r3, [r3, #6]
 466 0076 002B     		cmp	r3, #0
 467 0078 04D0     		beq	.L20
 192:main.c        ****         {
 193:main.c        ****             LCD_DisplayNormal();
 468              		.loc 1 193 0
 469 007a FFF7FEFF 		bl	LCD_DisplayNormal
 470              	.LVL35:
 194:main.c        ****             display_set_normal = 0;
 471              		.loc 1 194 0
 472 007e 0022     		movs	r2, #0
 473 0080 074B     		ldr	r3, .L24+8
 474 0082 9A71     		strb	r2, [r3, #6]
 475              	.L20:
 195:main.c        ****         }
 196:main.c        ****         
 197:main.c        ****         if (display_set_reverse)
 476              		.loc 1 197 0
 477 0084 064B     		ldr	r3, .L24+8
 478 0086 DB79     		ldrb	r3, [r3, #7]
 479 0088 002B     		cmp	r3, #0
 480 008a D0D0     		beq	.L21
 198:main.c        ****         {
ARM GAS  C:\Users\Jesus\AppData\Local\Temp\ccXfJYpd.s 			page 13


 199:main.c        ****             LCD_DisplayReverse();
 481              		.loc 1 199 0
 482 008c FFF7FEFF 		bl	LCD_DisplayReverse
 483              	.LVL36:
 200:main.c        ****             display_set_reverse = 0;
 484              		.loc 1 200 0
 485 0090 0022     		movs	r2, #0
 486 0092 034B     		ldr	r3, .L24+8
 487 0094 DA71     		strb	r2, [r3, #7]
 488 0096 CAE7     		b	.L21
 489              	.L25:
 490              		.align	2
 491              	.L24:
 492 0098 00000000 		.word	ISR_Reset_Handler
 493 009c 00000000 		.word	ISR_Capture_Handler
 494 00a0 00000000 		.word	.LANCHOR0
 495 00a4 00000000 		.word	data_buffer
 496              		.cfi_endproc
 497              	.LFE34:
 498              		.size	main, .-main
 499              		.global	display_set_reverse
 500              		.global	display_set_normal
 501              		.global	is_first_byte
 502              		.global	column_counter
 503              		.global	page_counter
 504              		.global	combined_data
 505              		.global	enable_capture
 506              		.global	data_ready
 507              		.global	data_buffer_ptr
 508              		.comm	data_buffer,2000,4
 509              		.global	bus_state
 510              		.comm	BUS_STATE,1,1
 511              		.data
 512              		.type	is_first_byte, %object
 513              		.size	is_first_byte, 1
 514              	is_first_byte:
 515 0000 01       		.byte	1
 516              		.bss
 517              		.align	1
 518              		.set	.LANCHOR0,. + 0
 519              		.type	bus_state, %object
 520              		.size	bus_state, 1
 521              	bus_state:
 522 0000 00       		.space	1
 523 0001 00       		.space	1
 524              		.type	data_buffer_ptr, %object
 525              		.size	data_buffer_ptr, 2
 526              	data_buffer_ptr:
 527 0002 0000     		.space	2
 528              		.type	column_counter, %object
 529              		.size	column_counter, 1
 530              	column_counter:
 531 0004 00       		.space	1
 532              		.type	page_counter, %object
 533              		.size	page_counter, 1
 534              	page_counter:
 535 0005 00       		.space	1
ARM GAS  C:\Users\Jesus\AppData\Local\Temp\ccXfJYpd.s 			page 14


 536              		.type	display_set_normal, %object
 537              		.size	display_set_normal, 1
 538              	display_set_normal:
 539 0006 00       		.space	1
 540              		.type	display_set_reverse, %object
 541              		.size	display_set_reverse, 1
 542              	display_set_reverse:
 543 0007 00       		.space	1
 544              		.type	combined_data, %object
 545              		.size	combined_data, 1
 546              	combined_data:
 547 0008 00       		.space	1
 548              		.type	data_ready, %object
 549              		.size	data_ready, 1
 550              	data_ready:
 551 0009 00       		.space	1
 552              		.type	enable_capture, %object
 553              		.size	enable_capture, 1
 554              	enable_capture:
 555 000a 00       		.space	1
 556              		.text
 557              	.Letext0:
 558              		.file 2 "Generated_Source\\PSoC4/cytypes.h"
 559              		.file 3 "Generated_Source\\PSoC4/A0.h"
 560              		.file 4 "Generated_Source\\PSoC4/E.h"
 561              		.file 5 "Generated_Source\\PSoC4/IData_Port.h"
 562              		.file 6 "Generated_Source\\PSoC4/ISR_Reset.h"
 563              		.file 7 "Generated_Source\\PSoC4/ISR_Capture.h"
 564              		.file 8 "Generated_Source\\PSoC4/SPILCD.h"
 565              		.file 9 "UC1608.h"