ARM GAS  C:\Users\Jesus\AppData\Local\Temp\cciIjUXf.s 			page 1


   1              		.syntax unified
   2              		.cpu cortex-m0
   3              		.fpu softvfp
   4              		.eabi_attribute 20, 1
   5              		.eabi_attribute 21, 1
   6              		.eabi_attribute 23, 3
   7              		.eabi_attribute 24, 1
   8              		.eabi_attribute 25, 1
   9              		.eabi_attribute 26, 1
  10              		.eabi_attribute 30, 1
  11              		.eabi_attribute 34, 0
  12              		.eabi_attribute 18, 4
  13              		.thumb
  14              		.syntax unified
  15              		.file	"SPILCD_SPI.c"
  16              		.text
  17              	.Ltext0:
  18              		.cfi_sections	.debug_frame
  19              		.section	.text.SPILCD_SpiPostEnable,"ax",%progbits
  20              		.align	2
  21              		.global	SPILCD_SpiPostEnable
  22              		.code	16
  23              		.thumb_func
  24              		.type	SPILCD_SpiPostEnable, %function
  25              	SPILCD_SpiPostEnable:
  26              	.LFB1:
  27              		.file 1 "Generated_Source\\PSoC4\\SPILCD_SPI.c"
   1:Generated_Source\PSoC4/SPILCD_SPI.c **** /***************************************************************************//**
   2:Generated_Source\PSoC4/SPILCD_SPI.c **** * \file SPILCD_SPI.c
   3:Generated_Source\PSoC4/SPILCD_SPI.c **** * \version 4.0
   4:Generated_Source\PSoC4/SPILCD_SPI.c **** *
   5:Generated_Source\PSoC4/SPILCD_SPI.c **** * \brief
   6:Generated_Source\PSoC4/SPILCD_SPI.c **** *  This file provides the source code to the API for the SCB Component in
   7:Generated_Source\PSoC4/SPILCD_SPI.c **** *  SPI mode.
   8:Generated_Source\PSoC4/SPILCD_SPI.c **** *
   9:Generated_Source\PSoC4/SPILCD_SPI.c **** * Note:
  10:Generated_Source\PSoC4/SPILCD_SPI.c **** *
  11:Generated_Source\PSoC4/SPILCD_SPI.c **** *******************************************************************************
  12:Generated_Source\PSoC4/SPILCD_SPI.c **** * \copyright
  13:Generated_Source\PSoC4/SPILCD_SPI.c **** * Copyright 2013-2017, Cypress Semiconductor Corporation.  All rights reserved.
  14:Generated_Source\PSoC4/SPILCD_SPI.c **** * You may use this file only in accordance with the license, terms, conditions,
  15:Generated_Source\PSoC4/SPILCD_SPI.c **** * disclaimers, and limitations in the end user license agreement accompanying
  16:Generated_Source\PSoC4/SPILCD_SPI.c **** * the software package with which this file was provided.
  17:Generated_Source\PSoC4/SPILCD_SPI.c **** *******************************************************************************/
  18:Generated_Source\PSoC4/SPILCD_SPI.c **** 
  19:Generated_Source\PSoC4/SPILCD_SPI.c **** #include "SPILCD_PVT.h"
  20:Generated_Source\PSoC4/SPILCD_SPI.c **** #include "SPILCD_SPI_UART_PVT.h"
  21:Generated_Source\PSoC4/SPILCD_SPI.c **** 
  22:Generated_Source\PSoC4/SPILCD_SPI.c **** #if(SPILCD_SCB_MODE_UNCONFIG_CONST_CFG)
  23:Generated_Source\PSoC4/SPILCD_SPI.c **** 
  24:Generated_Source\PSoC4/SPILCD_SPI.c ****     /***************************************
  25:Generated_Source\PSoC4/SPILCD_SPI.c ****     *  Configuration Structure Initialization
  26:Generated_Source\PSoC4/SPILCD_SPI.c ****     ***************************************/
  27:Generated_Source\PSoC4/SPILCD_SPI.c **** 
  28:Generated_Source\PSoC4/SPILCD_SPI.c ****     const SPILCD_SPI_INIT_STRUCT SPILCD_configSpi =
  29:Generated_Source\PSoC4/SPILCD_SPI.c ****     {
  30:Generated_Source\PSoC4/SPILCD_SPI.c ****         SPILCD_SPI_MODE,
ARM GAS  C:\Users\Jesus\AppData\Local\Temp\cciIjUXf.s 			page 2


  31:Generated_Source\PSoC4/SPILCD_SPI.c ****         SPILCD_SPI_SUB_MODE,
  32:Generated_Source\PSoC4/SPILCD_SPI.c ****         SPILCD_SPI_CLOCK_MODE,
  33:Generated_Source\PSoC4/SPILCD_SPI.c ****         SPILCD_SPI_OVS_FACTOR,
  34:Generated_Source\PSoC4/SPILCD_SPI.c ****         SPILCD_SPI_MEDIAN_FILTER_ENABLE,
  35:Generated_Source\PSoC4/SPILCD_SPI.c ****         SPILCD_SPI_LATE_MISO_SAMPLE_ENABLE,
  36:Generated_Source\PSoC4/SPILCD_SPI.c ****         SPILCD_SPI_WAKE_ENABLE,
  37:Generated_Source\PSoC4/SPILCD_SPI.c ****         SPILCD_SPI_RX_DATA_BITS_NUM,
  38:Generated_Source\PSoC4/SPILCD_SPI.c ****         SPILCD_SPI_TX_DATA_BITS_NUM,
  39:Generated_Source\PSoC4/SPILCD_SPI.c ****         SPILCD_SPI_BITS_ORDER,
  40:Generated_Source\PSoC4/SPILCD_SPI.c ****         SPILCD_SPI_TRANSFER_SEPARATION,
  41:Generated_Source\PSoC4/SPILCD_SPI.c ****         0u,
  42:Generated_Source\PSoC4/SPILCD_SPI.c ****         NULL,
  43:Generated_Source\PSoC4/SPILCD_SPI.c ****         0u,
  44:Generated_Source\PSoC4/SPILCD_SPI.c ****         NULL,
  45:Generated_Source\PSoC4/SPILCD_SPI.c ****         (uint32) SPILCD_SCB_IRQ_INTERNAL,
  46:Generated_Source\PSoC4/SPILCD_SPI.c ****         SPILCD_SPI_INTR_RX_MASK,
  47:Generated_Source\PSoC4/SPILCD_SPI.c ****         SPILCD_SPI_RX_TRIGGER_LEVEL,
  48:Generated_Source\PSoC4/SPILCD_SPI.c ****         SPILCD_SPI_INTR_TX_MASK,
  49:Generated_Source\PSoC4/SPILCD_SPI.c ****         SPILCD_SPI_TX_TRIGGER_LEVEL,
  50:Generated_Source\PSoC4/SPILCD_SPI.c ****         (uint8) SPILCD_SPI_BYTE_MODE_ENABLE,
  51:Generated_Source\PSoC4/SPILCD_SPI.c ****         (uint8) SPILCD_SPI_FREE_RUN_SCLK_ENABLE,
  52:Generated_Source\PSoC4/SPILCD_SPI.c ****         (uint8) SPILCD_SPI_SS_POLARITY
  53:Generated_Source\PSoC4/SPILCD_SPI.c ****     };
  54:Generated_Source\PSoC4/SPILCD_SPI.c **** 
  55:Generated_Source\PSoC4/SPILCD_SPI.c **** 
  56:Generated_Source\PSoC4/SPILCD_SPI.c ****     /*******************************************************************************
  57:Generated_Source\PSoC4/SPILCD_SPI.c ****     * Function Name: SPILCD_SpiInit
  58:Generated_Source\PSoC4/SPILCD_SPI.c ****     ****************************************************************************//**
  59:Generated_Source\PSoC4/SPILCD_SPI.c ****     *
  60:Generated_Source\PSoC4/SPILCD_SPI.c ****     *  Configures the SPILCD for SPI operation.
  61:Generated_Source\PSoC4/SPILCD_SPI.c ****     *
  62:Generated_Source\PSoC4/SPILCD_SPI.c ****     *  This function is intended specifically to be used when the SPILCD 
  63:Generated_Source\PSoC4/SPILCD_SPI.c ****     *  configuration is set to “Unconfigured SPILCD” in the customizer. 
  64:Generated_Source\PSoC4/SPILCD_SPI.c ****     *  After initializing the SPILCD in SPI mode using this function, 
  65:Generated_Source\PSoC4/SPILCD_SPI.c ****     *  the component can be enabled using the SPILCD_Start() or 
  66:Generated_Source\PSoC4/SPILCD_SPI.c ****     * SPILCD_Enable() function.
  67:Generated_Source\PSoC4/SPILCD_SPI.c ****     *  This function uses a pointer to a structure that provides the configuration 
  68:Generated_Source\PSoC4/SPILCD_SPI.c ****     *  settings. This structure contains the same information that would otherwise 
  69:Generated_Source\PSoC4/SPILCD_SPI.c ****     *  be provided by the customizer settings.
  70:Generated_Source\PSoC4/SPILCD_SPI.c ****     *
  71:Generated_Source\PSoC4/SPILCD_SPI.c ****     *  \param config: pointer to a structure that contains the following list of 
  72:Generated_Source\PSoC4/SPILCD_SPI.c ****     *   fields. These fields match the selections available in the customizer. 
  73:Generated_Source\PSoC4/SPILCD_SPI.c ****     *   Refer to the customizer for further description of the settings.
  74:Generated_Source\PSoC4/SPILCD_SPI.c ****     *
  75:Generated_Source\PSoC4/SPILCD_SPI.c ****     *******************************************************************************/
  76:Generated_Source\PSoC4/SPILCD_SPI.c ****     void SPILCD_SpiInit(const SPILCD_SPI_INIT_STRUCT *config)
  77:Generated_Source\PSoC4/SPILCD_SPI.c ****     {
  78:Generated_Source\PSoC4/SPILCD_SPI.c ****         if(NULL == config)
  79:Generated_Source\PSoC4/SPILCD_SPI.c ****         {
  80:Generated_Source\PSoC4/SPILCD_SPI.c ****             CYASSERT(0u != 0u); /* Halt execution due to bad function parameter */
  81:Generated_Source\PSoC4/SPILCD_SPI.c ****         }
  82:Generated_Source\PSoC4/SPILCD_SPI.c ****         else
  83:Generated_Source\PSoC4/SPILCD_SPI.c ****         {
  84:Generated_Source\PSoC4/SPILCD_SPI.c ****             /* Configure pins */
  85:Generated_Source\PSoC4/SPILCD_SPI.c ****             SPILCD_SetPins(SPILCD_SCB_MODE_SPI, config->mode, SPILCD_DUMMY_PARAM);
  86:Generated_Source\PSoC4/SPILCD_SPI.c **** 
  87:Generated_Source\PSoC4/SPILCD_SPI.c ****             /* Store internal configuration */
ARM GAS  C:\Users\Jesus\AppData\Local\Temp\cciIjUXf.s 			page 3


  88:Generated_Source\PSoC4/SPILCD_SPI.c ****             SPILCD_scbMode       = (uint8) SPILCD_SCB_MODE_SPI;
  89:Generated_Source\PSoC4/SPILCD_SPI.c ****             SPILCD_scbEnableWake = (uint8) config->enableWake;
  90:Generated_Source\PSoC4/SPILCD_SPI.c ****             SPILCD_scbEnableIntr = (uint8) config->enableInterrupt;
  91:Generated_Source\PSoC4/SPILCD_SPI.c **** 
  92:Generated_Source\PSoC4/SPILCD_SPI.c ****             /* Set RX direction internal variables */
  93:Generated_Source\PSoC4/SPILCD_SPI.c ****             SPILCD_rxBuffer      =         config->rxBuffer;
  94:Generated_Source\PSoC4/SPILCD_SPI.c ****             SPILCD_rxDataBits    = (uint8) config->rxDataBits;
  95:Generated_Source\PSoC4/SPILCD_SPI.c ****             SPILCD_rxBufferSize  =         config->rxBufferSize;
  96:Generated_Source\PSoC4/SPILCD_SPI.c **** 
  97:Generated_Source\PSoC4/SPILCD_SPI.c ****             /* Set TX direction internal variables */
  98:Generated_Source\PSoC4/SPILCD_SPI.c ****             SPILCD_txBuffer      =         config->txBuffer;
  99:Generated_Source\PSoC4/SPILCD_SPI.c ****             SPILCD_txDataBits    = (uint8) config->txDataBits;
 100:Generated_Source\PSoC4/SPILCD_SPI.c ****             SPILCD_txBufferSize  =         config->txBufferSize;
 101:Generated_Source\PSoC4/SPILCD_SPI.c **** 
 102:Generated_Source\PSoC4/SPILCD_SPI.c ****             /* Configure SPI interface */
 103:Generated_Source\PSoC4/SPILCD_SPI.c ****             SPILCD_CTRL_REG     = SPILCD_GET_CTRL_OVS(config->oversample)           |
 104:Generated_Source\PSoC4/SPILCD_SPI.c ****                                             SPILCD_GET_CTRL_BYTE_MODE(config->enableByteMode) |
 105:Generated_Source\PSoC4/SPILCD_SPI.c ****                                             SPILCD_GET_CTRL_EC_AM_MODE(config->enableWake)    |
 106:Generated_Source\PSoC4/SPILCD_SPI.c ****                                             SPILCD_CTRL_SPI;
 107:Generated_Source\PSoC4/SPILCD_SPI.c **** 
 108:Generated_Source\PSoC4/SPILCD_SPI.c ****             SPILCD_SPI_CTRL_REG = SPILCD_GET_SPI_CTRL_CONTINUOUS    (config->transferSeperation)  |
 109:Generated_Source\PSoC4/SPILCD_SPI.c ****                                             SPILCD_GET_SPI_CTRL_SELECT_PRECEDE(config->submode &
 110:Generated_Source\PSoC4/SPILCD_SPI.c ****                                                                           SPILCD_SPI_MODE_TI_PRECED
 111:Generated_Source\PSoC4/SPILCD_SPI.c ****                                             SPILCD_GET_SPI_CTRL_SCLK_MODE     (config->sclkMode)   
 112:Generated_Source\PSoC4/SPILCD_SPI.c ****                                             SPILCD_GET_SPI_CTRL_LATE_MISO_SAMPLE(config->enableLate
 113:Generated_Source\PSoC4/SPILCD_SPI.c ****                                             SPILCD_GET_SPI_CTRL_SCLK_CONTINUOUS(config->enableFreeR
 114:Generated_Source\PSoC4/SPILCD_SPI.c ****                                             SPILCD_GET_SPI_CTRL_SSEL_POLARITY (config->polaritySs) 
 115:Generated_Source\PSoC4/SPILCD_SPI.c ****                                             SPILCD_GET_SPI_CTRL_SUB_MODE      (config->submode)    
 116:Generated_Source\PSoC4/SPILCD_SPI.c ****                                             SPILCD_GET_SPI_CTRL_MASTER_MODE   (config->mode);
 117:Generated_Source\PSoC4/SPILCD_SPI.c **** 
 118:Generated_Source\PSoC4/SPILCD_SPI.c ****             /* Configure RX direction */
 119:Generated_Source\PSoC4/SPILCD_SPI.c ****             SPILCD_RX_CTRL_REG     =  SPILCD_GET_RX_CTRL_DATA_WIDTH(config->rxDataBits)         |
 120:Generated_Source\PSoC4/SPILCD_SPI.c ****                                                 SPILCD_GET_RX_CTRL_BIT_ORDER (config->bitOrder)    
 121:Generated_Source\PSoC4/SPILCD_SPI.c ****                                                 SPILCD_GET_RX_CTRL_MEDIAN    (config->enableMedianF
 122:Generated_Source\PSoC4/SPILCD_SPI.c ****                                                 SPILCD_SPI_RX_CTRL;
 123:Generated_Source\PSoC4/SPILCD_SPI.c **** 
 124:Generated_Source\PSoC4/SPILCD_SPI.c ****             SPILCD_RX_FIFO_CTRL_REG = SPILCD_GET_RX_FIFO_CTRL_TRIGGER_LEVEL(config->rxTriggerLevel)
 125:Generated_Source\PSoC4/SPILCD_SPI.c **** 
 126:Generated_Source\PSoC4/SPILCD_SPI.c ****             /* Configure TX direction */
 127:Generated_Source\PSoC4/SPILCD_SPI.c ****             SPILCD_TX_CTRL_REG      = SPILCD_GET_TX_CTRL_DATA_WIDTH(config->txDataBits) |
 128:Generated_Source\PSoC4/SPILCD_SPI.c ****                                                 SPILCD_GET_TX_CTRL_BIT_ORDER (config->bitOrder)   |
 129:Generated_Source\PSoC4/SPILCD_SPI.c ****                                                 SPILCD_SPI_TX_CTRL;
 130:Generated_Source\PSoC4/SPILCD_SPI.c **** 
 131:Generated_Source\PSoC4/SPILCD_SPI.c ****             SPILCD_TX_FIFO_CTRL_REG = SPILCD_GET_TX_FIFO_CTRL_TRIGGER_LEVEL(config->txTriggerLevel)
 132:Generated_Source\PSoC4/SPILCD_SPI.c **** 
 133:Generated_Source\PSoC4/SPILCD_SPI.c ****             /* Configure interrupt with SPI handler but do not enable it */
 134:Generated_Source\PSoC4/SPILCD_SPI.c ****             CyIntDisable    (SPILCD_ISR_NUMBER);
 135:Generated_Source\PSoC4/SPILCD_SPI.c ****             CyIntSetPriority(SPILCD_ISR_NUMBER, SPILCD_ISR_PRIORITY);
 136:Generated_Source\PSoC4/SPILCD_SPI.c ****             (void) CyIntSetVector(SPILCD_ISR_NUMBER, &SPILCD_SPI_UART_ISR);
 137:Generated_Source\PSoC4/SPILCD_SPI.c **** 
 138:Generated_Source\PSoC4/SPILCD_SPI.c ****             /* Configure interrupt sources */
 139:Generated_Source\PSoC4/SPILCD_SPI.c ****             SPILCD_INTR_I2C_EC_MASK_REG = SPILCD_NO_INTR_SOURCES;
 140:Generated_Source\PSoC4/SPILCD_SPI.c ****             SPILCD_INTR_SPI_EC_MASK_REG = SPILCD_NO_INTR_SOURCES;
 141:Generated_Source\PSoC4/SPILCD_SPI.c ****             SPILCD_INTR_SLAVE_MASK_REG  = SPILCD_GET_SPI_INTR_SLAVE_MASK(config->rxInterruptMask);
 142:Generated_Source\PSoC4/SPILCD_SPI.c ****             SPILCD_INTR_MASTER_MASK_REG = SPILCD_GET_SPI_INTR_MASTER_MASK(config->txInterruptMask);
 143:Generated_Source\PSoC4/SPILCD_SPI.c ****             SPILCD_INTR_RX_MASK_REG     = SPILCD_GET_SPI_INTR_RX_MASK(config->rxInterruptMask);
 144:Generated_Source\PSoC4/SPILCD_SPI.c ****             SPILCD_INTR_TX_MASK_REG     = SPILCD_GET_SPI_INTR_TX_MASK(config->txInterruptMask);
ARM GAS  C:\Users\Jesus\AppData\Local\Temp\cciIjUXf.s 			page 4


 145:Generated_Source\PSoC4/SPILCD_SPI.c ****             
 146:Generated_Source\PSoC4/SPILCD_SPI.c ****             /* Configure TX interrupt sources to restore. */
 147:Generated_Source\PSoC4/SPILCD_SPI.c ****             SPILCD_IntrTxMask = LO16(SPILCD_INTR_TX_MASK_REG);
 148:Generated_Source\PSoC4/SPILCD_SPI.c **** 
 149:Generated_Source\PSoC4/SPILCD_SPI.c ****             /* Set active SS0 */
 150:Generated_Source\PSoC4/SPILCD_SPI.c ****             SPILCD_SpiSetActiveSlaveSelect(SPILCD_SPI_SLAVE_SELECT0);
 151:Generated_Source\PSoC4/SPILCD_SPI.c **** 
 152:Generated_Source\PSoC4/SPILCD_SPI.c ****             /* Clear RX buffer indexes */
 153:Generated_Source\PSoC4/SPILCD_SPI.c ****             SPILCD_rxBufferHead     = 0u;
 154:Generated_Source\PSoC4/SPILCD_SPI.c ****             SPILCD_rxBufferTail     = 0u;
 155:Generated_Source\PSoC4/SPILCD_SPI.c ****             SPILCD_rxBufferOverflow = 0u;
 156:Generated_Source\PSoC4/SPILCD_SPI.c **** 
 157:Generated_Source\PSoC4/SPILCD_SPI.c ****             /* Clear TX buffer indexes */
 158:Generated_Source\PSoC4/SPILCD_SPI.c ****             SPILCD_txBufferHead = 0u;
 159:Generated_Source\PSoC4/SPILCD_SPI.c ****             SPILCD_txBufferTail = 0u;
 160:Generated_Source\PSoC4/SPILCD_SPI.c ****         }
 161:Generated_Source\PSoC4/SPILCD_SPI.c ****     }
 162:Generated_Source\PSoC4/SPILCD_SPI.c **** 
 163:Generated_Source\PSoC4/SPILCD_SPI.c **** #else
 164:Generated_Source\PSoC4/SPILCD_SPI.c **** 
 165:Generated_Source\PSoC4/SPILCD_SPI.c ****     /*******************************************************************************
 166:Generated_Source\PSoC4/SPILCD_SPI.c ****     * Function Name: SPILCD_SpiInit
 167:Generated_Source\PSoC4/SPILCD_SPI.c ****     ****************************************************************************//**
 168:Generated_Source\PSoC4/SPILCD_SPI.c ****     *
 169:Generated_Source\PSoC4/SPILCD_SPI.c ****     *  Configures the SCB for the SPI operation.
 170:Generated_Source\PSoC4/SPILCD_SPI.c ****     *
 171:Generated_Source\PSoC4/SPILCD_SPI.c ****     *******************************************************************************/
 172:Generated_Source\PSoC4/SPILCD_SPI.c ****     void SPILCD_SpiInit(void)
 173:Generated_Source\PSoC4/SPILCD_SPI.c ****     {
 174:Generated_Source\PSoC4/SPILCD_SPI.c ****         /* Configure SPI interface */
 175:Generated_Source\PSoC4/SPILCD_SPI.c ****         SPILCD_CTRL_REG     = SPILCD_SPI_DEFAULT_CTRL;
 176:Generated_Source\PSoC4/SPILCD_SPI.c ****         SPILCD_SPI_CTRL_REG = SPILCD_SPI_DEFAULT_SPI_CTRL;
 177:Generated_Source\PSoC4/SPILCD_SPI.c **** 
 178:Generated_Source\PSoC4/SPILCD_SPI.c ****         /* Configure TX and RX direction */
 179:Generated_Source\PSoC4/SPILCD_SPI.c ****         SPILCD_RX_CTRL_REG      = SPILCD_SPI_DEFAULT_RX_CTRL;
 180:Generated_Source\PSoC4/SPILCD_SPI.c ****         SPILCD_RX_FIFO_CTRL_REG = SPILCD_SPI_DEFAULT_RX_FIFO_CTRL;
 181:Generated_Source\PSoC4/SPILCD_SPI.c **** 
 182:Generated_Source\PSoC4/SPILCD_SPI.c ****         /* Configure TX and RX direction */
 183:Generated_Source\PSoC4/SPILCD_SPI.c ****         SPILCD_TX_CTRL_REG      = SPILCD_SPI_DEFAULT_TX_CTRL;
 184:Generated_Source\PSoC4/SPILCD_SPI.c ****         SPILCD_TX_FIFO_CTRL_REG = SPILCD_SPI_DEFAULT_TX_FIFO_CTRL;
 185:Generated_Source\PSoC4/SPILCD_SPI.c **** 
 186:Generated_Source\PSoC4/SPILCD_SPI.c ****         /* Configure interrupt with SPI handler but do not enable it */
 187:Generated_Source\PSoC4/SPILCD_SPI.c ****     #if(SPILCD_SCB_IRQ_INTERNAL)
 188:Generated_Source\PSoC4/SPILCD_SPI.c ****             CyIntDisable    (SPILCD_ISR_NUMBER);
 189:Generated_Source\PSoC4/SPILCD_SPI.c ****             CyIntSetPriority(SPILCD_ISR_NUMBER, SPILCD_ISR_PRIORITY);
 190:Generated_Source\PSoC4/SPILCD_SPI.c ****             (void) CyIntSetVector(SPILCD_ISR_NUMBER, &SPILCD_SPI_UART_ISR);
 191:Generated_Source\PSoC4/SPILCD_SPI.c ****     #endif /* (SPILCD_SCB_IRQ_INTERNAL) */
 192:Generated_Source\PSoC4/SPILCD_SPI.c **** 
 193:Generated_Source\PSoC4/SPILCD_SPI.c ****         /* Configure interrupt sources */
 194:Generated_Source\PSoC4/SPILCD_SPI.c ****         SPILCD_INTR_I2C_EC_MASK_REG = SPILCD_SPI_DEFAULT_INTR_I2C_EC_MASK;
 195:Generated_Source\PSoC4/SPILCD_SPI.c ****         SPILCD_INTR_SPI_EC_MASK_REG = SPILCD_SPI_DEFAULT_INTR_SPI_EC_MASK;
 196:Generated_Source\PSoC4/SPILCD_SPI.c ****         SPILCD_INTR_SLAVE_MASK_REG  = SPILCD_SPI_DEFAULT_INTR_SLAVE_MASK;
 197:Generated_Source\PSoC4/SPILCD_SPI.c ****         SPILCD_INTR_MASTER_MASK_REG = SPILCD_SPI_DEFAULT_INTR_MASTER_MASK;
 198:Generated_Source\PSoC4/SPILCD_SPI.c ****         SPILCD_INTR_RX_MASK_REG     = SPILCD_SPI_DEFAULT_INTR_RX_MASK;
 199:Generated_Source\PSoC4/SPILCD_SPI.c ****         SPILCD_INTR_TX_MASK_REG     = SPILCD_SPI_DEFAULT_INTR_TX_MASK;
 200:Generated_Source\PSoC4/SPILCD_SPI.c **** 
 201:Generated_Source\PSoC4/SPILCD_SPI.c ****         /* Configure TX interrupt sources to restore. */
ARM GAS  C:\Users\Jesus\AppData\Local\Temp\cciIjUXf.s 			page 5


 202:Generated_Source\PSoC4/SPILCD_SPI.c ****         SPILCD_IntrTxMask = LO16(SPILCD_INTR_TX_MASK_REG);
 203:Generated_Source\PSoC4/SPILCD_SPI.c ****             
 204:Generated_Source\PSoC4/SPILCD_SPI.c ****         /* Set active SS0 for master */
 205:Generated_Source\PSoC4/SPILCD_SPI.c ****     #if (SPILCD_SPI_MASTER_CONST)
 206:Generated_Source\PSoC4/SPILCD_SPI.c ****         SPILCD_SpiSetActiveSlaveSelect(SPILCD_SPI_SLAVE_SELECT0);
 207:Generated_Source\PSoC4/SPILCD_SPI.c ****     #endif /* (SPILCD_SPI_MASTER_CONST) */
 208:Generated_Source\PSoC4/SPILCD_SPI.c **** 
 209:Generated_Source\PSoC4/SPILCD_SPI.c ****     #if(SPILCD_INTERNAL_RX_SW_BUFFER_CONST)
 210:Generated_Source\PSoC4/SPILCD_SPI.c ****         SPILCD_rxBufferHead     = 0u;
 211:Generated_Source\PSoC4/SPILCD_SPI.c ****         SPILCD_rxBufferTail     = 0u;
 212:Generated_Source\PSoC4/SPILCD_SPI.c ****         SPILCD_rxBufferOverflow = 0u;
 213:Generated_Source\PSoC4/SPILCD_SPI.c ****     #endif /* (SPILCD_INTERNAL_RX_SW_BUFFER_CONST) */
 214:Generated_Source\PSoC4/SPILCD_SPI.c **** 
 215:Generated_Source\PSoC4/SPILCD_SPI.c ****     #if(SPILCD_INTERNAL_TX_SW_BUFFER_CONST)
 216:Generated_Source\PSoC4/SPILCD_SPI.c ****         SPILCD_txBufferHead = 0u;
 217:Generated_Source\PSoC4/SPILCD_SPI.c ****         SPILCD_txBufferTail = 0u;
 218:Generated_Source\PSoC4/SPILCD_SPI.c ****     #endif /* (SPILCD_INTERNAL_TX_SW_BUFFER_CONST) */
 219:Generated_Source\PSoC4/SPILCD_SPI.c ****     }
 220:Generated_Source\PSoC4/SPILCD_SPI.c **** #endif /* (SPILCD_SCB_MODE_UNCONFIG_CONST_CFG) */
 221:Generated_Source\PSoC4/SPILCD_SPI.c **** 
 222:Generated_Source\PSoC4/SPILCD_SPI.c **** 
 223:Generated_Source\PSoC4/SPILCD_SPI.c **** /*******************************************************************************
 224:Generated_Source\PSoC4/SPILCD_SPI.c **** * Function Name: SPILCD_SpiPostEnable
 225:Generated_Source\PSoC4/SPILCD_SPI.c **** ****************************************************************************//**
 226:Generated_Source\PSoC4/SPILCD_SPI.c **** *
 227:Generated_Source\PSoC4/SPILCD_SPI.c **** *  Restores HSIOM settings for the SPI master output pins (SCLK and/or SS0-SS3) 
 228:Generated_Source\PSoC4/SPILCD_SPI.c **** *  to be controlled by the SCB SPI.
 229:Generated_Source\PSoC4/SPILCD_SPI.c **** *
 230:Generated_Source\PSoC4/SPILCD_SPI.c **** *******************************************************************************/
 231:Generated_Source\PSoC4/SPILCD_SPI.c **** void SPILCD_SpiPostEnable(void)
 232:Generated_Source\PSoC4/SPILCD_SPI.c **** {
  28              		.loc 1 232 0
  29              		.cfi_startproc
  30              		@ args = 0, pretend = 0, frame = 0
  31              		@ frame_needed = 0, uses_anonymous_args = 0
  32              		@ link register save eliminated.
 233:Generated_Source\PSoC4/SPILCD_SPI.c **** #if(SPILCD_SCB_MODE_UNCONFIG_CONST_CFG)
 234:Generated_Source\PSoC4/SPILCD_SPI.c **** 
 235:Generated_Source\PSoC4/SPILCD_SPI.c ****     if (SPILCD_CHECK_SPI_MASTER)
 236:Generated_Source\PSoC4/SPILCD_SPI.c ****     {
 237:Generated_Source\PSoC4/SPILCD_SPI.c ****     #if (SPILCD_SCLK_PIN)
 238:Generated_Source\PSoC4/SPILCD_SPI.c ****         /* Set SCB SPI to drive output pin */
 239:Generated_Source\PSoC4/SPILCD_SPI.c ****         SPILCD_SET_HSIOM_SEL(SPILCD_SCLK_HSIOM_REG, SPILCD_SCLK_HSIOM_MASK,
 240:Generated_Source\PSoC4/SPILCD_SPI.c ****                                        SPILCD_SCLK_HSIOM_POS, SPILCD_SCLK_HSIOM_SEL_SPI);
 241:Generated_Source\PSoC4/SPILCD_SPI.c ****     #endif /* (SPILCD_SCLK_PIN) */
 242:Generated_Source\PSoC4/SPILCD_SPI.c **** 
 243:Generated_Source\PSoC4/SPILCD_SPI.c ****     #if (SPILCD_SS0_PIN)
 244:Generated_Source\PSoC4/SPILCD_SPI.c ****         /* Set SCB SPI to drive output pin */
 245:Generated_Source\PSoC4/SPILCD_SPI.c ****         SPILCD_SET_HSIOM_SEL(SPILCD_SS0_HSIOM_REG, SPILCD_SS0_HSIOM_MASK,
 246:Generated_Source\PSoC4/SPILCD_SPI.c ****                                        SPILCD_SS0_HSIOM_POS, SPILCD_SS0_HSIOM_SEL_SPI);
 247:Generated_Source\PSoC4/SPILCD_SPI.c ****     #endif /* (SPILCD_SS0_PIN) */
 248:Generated_Source\PSoC4/SPILCD_SPI.c **** 
 249:Generated_Source\PSoC4/SPILCD_SPI.c ****     #if (SPILCD_SS1_PIN)
 250:Generated_Source\PSoC4/SPILCD_SPI.c ****         /* Set SCB SPI to drive output pin */
 251:Generated_Source\PSoC4/SPILCD_SPI.c ****         SPILCD_SET_HSIOM_SEL(SPILCD_SS1_HSIOM_REG, SPILCD_SS1_HSIOM_MASK,
 252:Generated_Source\PSoC4/SPILCD_SPI.c ****                                        SPILCD_SS1_HSIOM_POS, SPILCD_SS1_HSIOM_SEL_SPI);
 253:Generated_Source\PSoC4/SPILCD_SPI.c ****     #endif /* (SPILCD_SS1_PIN) */
ARM GAS  C:\Users\Jesus\AppData\Local\Temp\cciIjUXf.s 			page 6


 254:Generated_Source\PSoC4/SPILCD_SPI.c **** 
 255:Generated_Source\PSoC4/SPILCD_SPI.c ****     #if (SPILCD_SS2_PIN)
 256:Generated_Source\PSoC4/SPILCD_SPI.c ****         /* Set SCB SPI to drive output pin */
 257:Generated_Source\PSoC4/SPILCD_SPI.c ****         SPILCD_SET_HSIOM_SEL(SPILCD_SS2_HSIOM_REG, SPILCD_SS2_HSIOM_MASK,
 258:Generated_Source\PSoC4/SPILCD_SPI.c ****                                        SPILCD_SS2_HSIOM_POS, SPILCD_SS2_HSIOM_SEL_SPI);
 259:Generated_Source\PSoC4/SPILCD_SPI.c ****     #endif /* (SPILCD_SS2_PIN) */
 260:Generated_Source\PSoC4/SPILCD_SPI.c **** 
 261:Generated_Source\PSoC4/SPILCD_SPI.c ****     #if (SPILCD_SS3_PIN)
 262:Generated_Source\PSoC4/SPILCD_SPI.c ****         /* Set SCB SPI to drive output pin */
 263:Generated_Source\PSoC4/SPILCD_SPI.c ****         SPILCD_SET_HSIOM_SEL(SPILCD_SS3_HSIOM_REG, SPILCD_SS3_HSIOM_MASK,
 264:Generated_Source\PSoC4/SPILCD_SPI.c ****                                        SPILCD_SS3_HSIOM_POS, SPILCD_SS3_HSIOM_SEL_SPI);
 265:Generated_Source\PSoC4/SPILCD_SPI.c ****     #endif /* (SPILCD_SS3_PIN) */
 266:Generated_Source\PSoC4/SPILCD_SPI.c ****     }
 267:Generated_Source\PSoC4/SPILCD_SPI.c **** 
 268:Generated_Source\PSoC4/SPILCD_SPI.c **** #else
 269:Generated_Source\PSoC4/SPILCD_SPI.c **** 
 270:Generated_Source\PSoC4/SPILCD_SPI.c ****     #if (SPILCD_SPI_MASTER_SCLK_PIN)
 271:Generated_Source\PSoC4/SPILCD_SPI.c ****         /* Set SCB SPI to drive output pin */
 272:Generated_Source\PSoC4/SPILCD_SPI.c ****         SPILCD_SET_HSIOM_SEL(SPILCD_SCLK_M_HSIOM_REG, SPILCD_SCLK_M_HSIOM_MASK,
  33              		.loc 1 272 0
  34 0000 054A     		ldr	r2, .L2
  35 0002 1368     		ldr	r3, [r2]
  36 0004 F021     		movs	r1, #240
  37 0006 0905     		lsls	r1, r1, #20
  38 0008 0B43     		orrs	r3, r1
  39 000a 1360     		str	r3, [r2]
 273:Generated_Source\PSoC4/SPILCD_SPI.c ****                                        SPILCD_SCLK_M_HSIOM_POS, SPILCD_SCLK_M_HSIOM_SEL_SPI);
 274:Generated_Source\PSoC4/SPILCD_SPI.c ****     #endif /* (SPILCD_MISO_SDA_TX_PIN_PIN) */
 275:Generated_Source\PSoC4/SPILCD_SPI.c **** 
 276:Generated_Source\PSoC4/SPILCD_SPI.c ****     #if (SPILCD_SPI_MASTER_SS0_PIN)
 277:Generated_Source\PSoC4/SPILCD_SPI.c ****         /* Set SCB SPI to drive output pin */
 278:Generated_Source\PSoC4/SPILCD_SPI.c ****         SPILCD_SET_HSIOM_SEL(SPILCD_SS0_M_HSIOM_REG, SPILCD_SS0_M_HSIOM_MASK,
 279:Generated_Source\PSoC4/SPILCD_SPI.c ****                                        SPILCD_SS0_M_HSIOM_POS, SPILCD_SS0_M_HSIOM_SEL_SPI);
 280:Generated_Source\PSoC4/SPILCD_SPI.c ****     #endif /* (SPILCD_SPI_MASTER_SS0_PIN) */
 281:Generated_Source\PSoC4/SPILCD_SPI.c **** 
 282:Generated_Source\PSoC4/SPILCD_SPI.c ****     #if (SPILCD_SPI_MASTER_SS1_PIN)
 283:Generated_Source\PSoC4/SPILCD_SPI.c ****         /* Set SCB SPI to drive output pin */
 284:Generated_Source\PSoC4/SPILCD_SPI.c ****         SPILCD_SET_HSIOM_SEL(SPILCD_SS1_M_HSIOM_REG, SPILCD_SS1_M_HSIOM_MASK,
 285:Generated_Source\PSoC4/SPILCD_SPI.c ****                                        SPILCD_SS1_M_HSIOM_POS, SPILCD_SS1_M_HSIOM_SEL_SPI);
 286:Generated_Source\PSoC4/SPILCD_SPI.c ****     #endif /* (SPILCD_SPI_MASTER_SS1_PIN) */
 287:Generated_Source\PSoC4/SPILCD_SPI.c **** 
 288:Generated_Source\PSoC4/SPILCD_SPI.c ****     #if (SPILCD_SPI_MASTER_SS2_PIN)
 289:Generated_Source\PSoC4/SPILCD_SPI.c ****         /* Set SCB SPI to drive output pin */
 290:Generated_Source\PSoC4/SPILCD_SPI.c ****         SPILCD_SET_HSIOM_SEL(SPILCD_SS2_M_HSIOM_REG, SPILCD_SS2_M_HSIOM_MASK,
 291:Generated_Source\PSoC4/SPILCD_SPI.c ****                                        SPILCD_SS2_M_HSIOM_POS, SPILCD_SS2_M_HSIOM_SEL_SPI);
 292:Generated_Source\PSoC4/SPILCD_SPI.c ****     #endif /* (SPILCD_SPI_MASTER_SS2_PIN) */
 293:Generated_Source\PSoC4/SPILCD_SPI.c **** 
 294:Generated_Source\PSoC4/SPILCD_SPI.c ****     #if (SPILCD_SPI_MASTER_SS3_PIN)
 295:Generated_Source\PSoC4/SPILCD_SPI.c ****         /* Set SCB SPI to drive output pin */
 296:Generated_Source\PSoC4/SPILCD_SPI.c ****         SPILCD_SET_HSIOM_SEL(SPILCD_SS3_M_HSIOM_REG, SPILCD_SS3_M_HSIOM_MASK,
 297:Generated_Source\PSoC4/SPILCD_SPI.c ****                                        SPILCD_SS3_M_HSIOM_POS, SPILCD_SS3_M_HSIOM_SEL_SPI);
 298:Generated_Source\PSoC4/SPILCD_SPI.c ****     #endif /* (SPILCD_SPI_MASTER_SS3_PIN) */
 299:Generated_Source\PSoC4/SPILCD_SPI.c **** 
 300:Generated_Source\PSoC4/SPILCD_SPI.c **** #endif /* (SPILCD_SCB_MODE_UNCONFIG_CONST_CFG) */
 301:Generated_Source\PSoC4/SPILCD_SPI.c **** 
 302:Generated_Source\PSoC4/SPILCD_SPI.c ****     /* Restore TX interrupt sources. */
 303:Generated_Source\PSoC4/SPILCD_SPI.c ****     SPILCD_SetTxInterruptMode(SPILCD_IntrTxMask);
ARM GAS  C:\Users\Jesus\AppData\Local\Temp\cciIjUXf.s 			page 7


  40              		.loc 1 303 0
  41 000c 034B     		ldr	r3, .L2+4
  42 000e 1A88     		ldrh	r2, [r3]
  43 0010 034B     		ldr	r3, .L2+8
  44 0012 1A60     		str	r2, [r3]
 304:Generated_Source\PSoC4/SPILCD_SPI.c **** }
  45              		.loc 1 304 0
  46              		@ sp needed
  47 0014 7047     		bx	lr
  48              	.L3:
  49 0016 C046     		.align	2
  50              	.L2:
  51 0018 00000140 		.word	1073807360
  52 001c 00000000 		.word	SPILCD_IntrTxMask
  53 0020 880F0740 		.word	1074204552
  54              		.cfi_endproc
  55              	.LFE1:
  56              		.size	SPILCD_SpiPostEnable, .-SPILCD_SpiPostEnable
  57              		.section	.text.SPILCD_SpiStop,"ax",%progbits
  58              		.align	2
  59              		.global	SPILCD_SpiStop
  60              		.code	16
  61              		.thumb_func
  62              		.type	SPILCD_SpiStop, %function
  63              	SPILCD_SpiStop:
  64              	.LFB2:
 305:Generated_Source\PSoC4/SPILCD_SPI.c **** 
 306:Generated_Source\PSoC4/SPILCD_SPI.c **** 
 307:Generated_Source\PSoC4/SPILCD_SPI.c **** /*******************************************************************************
 308:Generated_Source\PSoC4/SPILCD_SPI.c **** * Function Name: SPILCD_SpiStop
 309:Generated_Source\PSoC4/SPILCD_SPI.c **** ****************************************************************************//**
 310:Generated_Source\PSoC4/SPILCD_SPI.c **** *
 311:Generated_Source\PSoC4/SPILCD_SPI.c **** *  Changes the HSIOM settings for the SPI master output pins 
 312:Generated_Source\PSoC4/SPILCD_SPI.c **** *  (SCLK and/or SS0-SS3) to keep them inactive after the block is disabled. 
 313:Generated_Source\PSoC4/SPILCD_SPI.c **** *  The output pins are controlled by the GPIO data register.
 314:Generated_Source\PSoC4/SPILCD_SPI.c **** *
 315:Generated_Source\PSoC4/SPILCD_SPI.c **** *******************************************************************************/
 316:Generated_Source\PSoC4/SPILCD_SPI.c **** void SPILCD_SpiStop(void)
 317:Generated_Source\PSoC4/SPILCD_SPI.c **** {
  65              		.loc 1 317 0
  66              		.cfi_startproc
  67              		@ args = 0, pretend = 0, frame = 0
  68              		@ frame_needed = 0, uses_anonymous_args = 0
  69 0000 10B5     		push	{r4, lr}
  70              		.cfi_def_cfa_offset 8
  71              		.cfi_offset 4, -8
  72              		.cfi_offset 14, -4
 318:Generated_Source\PSoC4/SPILCD_SPI.c **** #if(SPILCD_SCB_MODE_UNCONFIG_CONST_CFG)
 319:Generated_Source\PSoC4/SPILCD_SPI.c **** 
 320:Generated_Source\PSoC4/SPILCD_SPI.c ****     if (SPILCD_CHECK_SPI_MASTER)
 321:Generated_Source\PSoC4/SPILCD_SPI.c ****     {
 322:Generated_Source\PSoC4/SPILCD_SPI.c ****     #if (SPILCD_SCLK_PIN)
 323:Generated_Source\PSoC4/SPILCD_SPI.c ****         /* Set output pin state after block is disabled */
 324:Generated_Source\PSoC4/SPILCD_SPI.c ****         SPILCD_spi_sclk_Write(SPILCD_GET_SPI_SCLK_INACTIVE);
 325:Generated_Source\PSoC4/SPILCD_SPI.c **** 
 326:Generated_Source\PSoC4/SPILCD_SPI.c ****         /* Set GPIO to drive output pin */
 327:Generated_Source\PSoC4/SPILCD_SPI.c ****         SPILCD_SET_HSIOM_SEL(SPILCD_SCLK_HSIOM_REG, SPILCD_SCLK_HSIOM_MASK,
ARM GAS  C:\Users\Jesus\AppData\Local\Temp\cciIjUXf.s 			page 8


 328:Generated_Source\PSoC4/SPILCD_SPI.c ****                                        SPILCD_SCLK_HSIOM_POS, SPILCD_SCLK_HSIOM_SEL_GPIO);
 329:Generated_Source\PSoC4/SPILCD_SPI.c ****     #endif /* (SPILCD_spi_sclk_PIN) */
 330:Generated_Source\PSoC4/SPILCD_SPI.c **** 
 331:Generated_Source\PSoC4/SPILCD_SPI.c ****     #if (SPILCD_SS0_PIN)
 332:Generated_Source\PSoC4/SPILCD_SPI.c ****         /* Set output pin state after block is disabled */
 333:Generated_Source\PSoC4/SPILCD_SPI.c ****         SPILCD_spi_ss0_Write(SPILCD_GET_SPI_SS0_INACTIVE);
 334:Generated_Source\PSoC4/SPILCD_SPI.c **** 
 335:Generated_Source\PSoC4/SPILCD_SPI.c ****         /* Set GPIO to drive output pin */
 336:Generated_Source\PSoC4/SPILCD_SPI.c ****         SPILCD_SET_HSIOM_SEL(SPILCD_SS0_HSIOM_REG, SPILCD_SS0_HSIOM_MASK,
 337:Generated_Source\PSoC4/SPILCD_SPI.c ****                                        SPILCD_SS0_HSIOM_POS, SPILCD_SS0_HSIOM_SEL_GPIO);
 338:Generated_Source\PSoC4/SPILCD_SPI.c ****     #endif /* (SPILCD_spi_ss0_PIN) */
 339:Generated_Source\PSoC4/SPILCD_SPI.c **** 
 340:Generated_Source\PSoC4/SPILCD_SPI.c ****     #if (SPILCD_SS1_PIN)
 341:Generated_Source\PSoC4/SPILCD_SPI.c ****         /* Set output pin state after block is disabled */
 342:Generated_Source\PSoC4/SPILCD_SPI.c ****         SPILCD_spi_ss1_Write(SPILCD_GET_SPI_SS1_INACTIVE);
 343:Generated_Source\PSoC4/SPILCD_SPI.c **** 
 344:Generated_Source\PSoC4/SPILCD_SPI.c ****         /* Set GPIO to drive output pin */
 345:Generated_Source\PSoC4/SPILCD_SPI.c ****         SPILCD_SET_HSIOM_SEL(SPILCD_SS1_HSIOM_REG, SPILCD_SS1_HSIOM_MASK,
 346:Generated_Source\PSoC4/SPILCD_SPI.c ****                                        SPILCD_SS1_HSIOM_POS, SPILCD_SS1_HSIOM_SEL_GPIO);
 347:Generated_Source\PSoC4/SPILCD_SPI.c ****     #endif /* (SPILCD_SS1_PIN) */
 348:Generated_Source\PSoC4/SPILCD_SPI.c **** 
 349:Generated_Source\PSoC4/SPILCD_SPI.c ****     #if (SPILCD_SS2_PIN)
 350:Generated_Source\PSoC4/SPILCD_SPI.c ****         /* Set output pin state after block is disabled */
 351:Generated_Source\PSoC4/SPILCD_SPI.c ****         SPILCD_spi_ss2_Write(SPILCD_GET_SPI_SS2_INACTIVE);
 352:Generated_Source\PSoC4/SPILCD_SPI.c **** 
 353:Generated_Source\PSoC4/SPILCD_SPI.c ****         /* Set GPIO to drive output pin */
 354:Generated_Source\PSoC4/SPILCD_SPI.c ****         SPILCD_SET_HSIOM_SEL(SPILCD_SS2_HSIOM_REG, SPILCD_SS2_HSIOM_MASK,
 355:Generated_Source\PSoC4/SPILCD_SPI.c ****                                        SPILCD_SS2_HSIOM_POS, SPILCD_SS2_HSIOM_SEL_GPIO);
 356:Generated_Source\PSoC4/SPILCD_SPI.c ****     #endif /* (SPILCD_SS2_PIN) */
 357:Generated_Source\PSoC4/SPILCD_SPI.c **** 
 358:Generated_Source\PSoC4/SPILCD_SPI.c ****     #if (SPILCD_SS3_PIN)
 359:Generated_Source\PSoC4/SPILCD_SPI.c ****         /* Set output pin state after block is disabled */
 360:Generated_Source\PSoC4/SPILCD_SPI.c ****         SPILCD_spi_ss3_Write(SPILCD_GET_SPI_SS3_INACTIVE);
 361:Generated_Source\PSoC4/SPILCD_SPI.c **** 
 362:Generated_Source\PSoC4/SPILCD_SPI.c ****         /* Set GPIO to drive output pin */
 363:Generated_Source\PSoC4/SPILCD_SPI.c ****         SPILCD_SET_HSIOM_SEL(SPILCD_SS3_HSIOM_REG, SPILCD_SS3_HSIOM_MASK,
 364:Generated_Source\PSoC4/SPILCD_SPI.c ****                                        SPILCD_SS3_HSIOM_POS, SPILCD_SS3_HSIOM_SEL_GPIO);
 365:Generated_Source\PSoC4/SPILCD_SPI.c ****     #endif /* (SPILCD_SS3_PIN) */
 366:Generated_Source\PSoC4/SPILCD_SPI.c ****     
 367:Generated_Source\PSoC4/SPILCD_SPI.c ****         /* Store TX interrupt sources (exclude level triggered) for master. */
 368:Generated_Source\PSoC4/SPILCD_SPI.c ****         SPILCD_IntrTxMask = LO16(SPILCD_GetTxInterruptMode() & SPILCD_INTR_SPIM_TX_RESTORE);
 369:Generated_Source\PSoC4/SPILCD_SPI.c ****     }
 370:Generated_Source\PSoC4/SPILCD_SPI.c ****     else
 371:Generated_Source\PSoC4/SPILCD_SPI.c ****     {
 372:Generated_Source\PSoC4/SPILCD_SPI.c ****         /* Store TX interrupt sources (exclude level triggered) for slave. */
 373:Generated_Source\PSoC4/SPILCD_SPI.c ****         SPILCD_IntrTxMask = LO16(SPILCD_GetTxInterruptMode() & SPILCD_INTR_SPIS_TX_RESTORE);
 374:Generated_Source\PSoC4/SPILCD_SPI.c ****     }
 375:Generated_Source\PSoC4/SPILCD_SPI.c **** 
 376:Generated_Source\PSoC4/SPILCD_SPI.c **** #else
 377:Generated_Source\PSoC4/SPILCD_SPI.c **** 
 378:Generated_Source\PSoC4/SPILCD_SPI.c **** #if (SPILCD_SPI_MASTER_SCLK_PIN)
 379:Generated_Source\PSoC4/SPILCD_SPI.c ****     /* Set output pin state after block is disabled */
 380:Generated_Source\PSoC4/SPILCD_SPI.c ****     SPILCD_sclk_m_Write(SPILCD_GET_SPI_SCLK_INACTIVE);
  73              		.loc 1 380 0
  74 0002 0A4B     		ldr	r3, .L5
  75 0004 1B68     		ldr	r3, [r3]
  76 0006 0820     		movs	r0, #8
ARM GAS  C:\Users\Jesus\AppData\Local\Temp\cciIjUXf.s 			page 9


  77 0008 1840     		ands	r0, r3
  78 000a 431E     		subs	r3, r0, #1
  79 000c 9841     		sbcs	r0, r0, r3
  80 000e C0B2     		uxtb	r0, r0
  81 0010 FFF7FEFF 		bl	SPILCD_sclk_m_Write
  82              	.LVL0:
 381:Generated_Source\PSoC4/SPILCD_SPI.c **** 
 382:Generated_Source\PSoC4/SPILCD_SPI.c ****     /* Set GPIO to drive output pin */
 383:Generated_Source\PSoC4/SPILCD_SPI.c ****     SPILCD_SET_HSIOM_SEL(SPILCD_SCLK_M_HSIOM_REG, SPILCD_SCLK_M_HSIOM_MASK,
  83              		.loc 1 383 0
  84 0014 064A     		ldr	r2, .L5+4
  85 0016 1168     		ldr	r1, [r2]
  86 0018 064B     		ldr	r3, .L5+8
  87 001a 0B40     		ands	r3, r1
  88 001c 1360     		str	r3, [r2]
 384:Generated_Source\PSoC4/SPILCD_SPI.c ****                                    SPILCD_SCLK_M_HSIOM_POS, SPILCD_SCLK_M_HSIOM_SEL_GPIO);
 385:Generated_Source\PSoC4/SPILCD_SPI.c **** #endif /* (SPILCD_MISO_SDA_TX_PIN_PIN) */
 386:Generated_Source\PSoC4/SPILCD_SPI.c **** 
 387:Generated_Source\PSoC4/SPILCD_SPI.c **** #if (SPILCD_SPI_MASTER_SS0_PIN)
 388:Generated_Source\PSoC4/SPILCD_SPI.c ****     /* Set output pin state after block is disabled */
 389:Generated_Source\PSoC4/SPILCD_SPI.c ****     SPILCD_ss0_m_Write(SPILCD_GET_SPI_SS0_INACTIVE);
 390:Generated_Source\PSoC4/SPILCD_SPI.c **** 
 391:Generated_Source\PSoC4/SPILCD_SPI.c ****     /* Set GPIO to drive output pin */
 392:Generated_Source\PSoC4/SPILCD_SPI.c ****     SPILCD_SET_HSIOM_SEL(SPILCD_SS0_M_HSIOM_REG, SPILCD_SS0_M_HSIOM_MASK,
 393:Generated_Source\PSoC4/SPILCD_SPI.c ****                                    SPILCD_SS0_M_HSIOM_POS, SPILCD_SS0_M_HSIOM_SEL_GPIO);
 394:Generated_Source\PSoC4/SPILCD_SPI.c **** #endif /* (SPILCD_SPI_MASTER_SS0_PIN) */
 395:Generated_Source\PSoC4/SPILCD_SPI.c **** 
 396:Generated_Source\PSoC4/SPILCD_SPI.c **** #if (SPILCD_SPI_MASTER_SS1_PIN)
 397:Generated_Source\PSoC4/SPILCD_SPI.c ****     /* Set output pin state after block is disabled */
 398:Generated_Source\PSoC4/SPILCD_SPI.c ****     SPILCD_ss1_m_Write(SPILCD_GET_SPI_SS1_INACTIVE);
 399:Generated_Source\PSoC4/SPILCD_SPI.c **** 
 400:Generated_Source\PSoC4/SPILCD_SPI.c ****     /* Set GPIO to drive output pin */
 401:Generated_Source\PSoC4/SPILCD_SPI.c ****     SPILCD_SET_HSIOM_SEL(SPILCD_SS1_M_HSIOM_REG, SPILCD_SS1_M_HSIOM_MASK,
 402:Generated_Source\PSoC4/SPILCD_SPI.c ****                                    SPILCD_SS1_M_HSIOM_POS, SPILCD_SS1_M_HSIOM_SEL_GPIO);
 403:Generated_Source\PSoC4/SPILCD_SPI.c **** #endif /* (SPILCD_SPI_MASTER_SS1_PIN) */
 404:Generated_Source\PSoC4/SPILCD_SPI.c **** 
 405:Generated_Source\PSoC4/SPILCD_SPI.c **** #if (SPILCD_SPI_MASTER_SS2_PIN)
 406:Generated_Source\PSoC4/SPILCD_SPI.c ****     /* Set output pin state after block is disabled */
 407:Generated_Source\PSoC4/SPILCD_SPI.c ****     SPILCD_ss2_m_Write(SPILCD_GET_SPI_SS2_INACTIVE);
 408:Generated_Source\PSoC4/SPILCD_SPI.c **** 
 409:Generated_Source\PSoC4/SPILCD_SPI.c ****     /* Set GPIO to drive output pin */
 410:Generated_Source\PSoC4/SPILCD_SPI.c ****     SPILCD_SET_HSIOM_SEL(SPILCD_SS2_M_HSIOM_REG, SPILCD_SS2_M_HSIOM_MASK,
 411:Generated_Source\PSoC4/SPILCD_SPI.c ****                                    SPILCD_SS2_M_HSIOM_POS, SPILCD_SS2_M_HSIOM_SEL_GPIO);
 412:Generated_Source\PSoC4/SPILCD_SPI.c **** #endif /* (SPILCD_SPI_MASTER_SS2_PIN) */
 413:Generated_Source\PSoC4/SPILCD_SPI.c **** 
 414:Generated_Source\PSoC4/SPILCD_SPI.c **** #if (SPILCD_SPI_MASTER_SS3_PIN)
 415:Generated_Source\PSoC4/SPILCD_SPI.c ****     /* Set output pin state after block is disabled */
 416:Generated_Source\PSoC4/SPILCD_SPI.c ****     SPILCD_ss3_m_Write(SPILCD_GET_SPI_SS3_INACTIVE);
 417:Generated_Source\PSoC4/SPILCD_SPI.c **** 
 418:Generated_Source\PSoC4/SPILCD_SPI.c ****     /* Set GPIO to drive output pin */
 419:Generated_Source\PSoC4/SPILCD_SPI.c ****     SPILCD_SET_HSIOM_SEL(SPILCD_SS3_M_HSIOM_REG, SPILCD_SS3_M_HSIOM_MASK,
 420:Generated_Source\PSoC4/SPILCD_SPI.c ****                                    SPILCD_SS3_M_HSIOM_POS, SPILCD_SS3_M_HSIOM_SEL_GPIO);
 421:Generated_Source\PSoC4/SPILCD_SPI.c **** #endif /* (SPILCD_SPI_MASTER_SS3_PIN) */
 422:Generated_Source\PSoC4/SPILCD_SPI.c **** 
 423:Generated_Source\PSoC4/SPILCD_SPI.c ****     #if (SPILCD_SPI_MASTER_CONST)
 424:Generated_Source\PSoC4/SPILCD_SPI.c ****         /* Store TX interrupt sources (exclude level triggered). */
 425:Generated_Source\PSoC4/SPILCD_SPI.c ****         SPILCD_IntrTxMask = LO16(SPILCD_GetTxInterruptMode() & SPILCD_INTR_SPIM_TX_RESTORE);
ARM GAS  C:\Users\Jesus\AppData\Local\Temp\cciIjUXf.s 			page 10


  89              		.loc 1 425 0
  90 001e 064B     		ldr	r3, .L5+12
  91 0020 1B68     		ldr	r3, [r3]
  92 0022 2022     		movs	r2, #32
  93 0024 1340     		ands	r3, r2
  94 0026 054A     		ldr	r2, .L5+16
  95 0028 1380     		strh	r3, [r2]
 426:Generated_Source\PSoC4/SPILCD_SPI.c ****     #else
 427:Generated_Source\PSoC4/SPILCD_SPI.c ****         /* Store TX interrupt sources (exclude level triggered). */
 428:Generated_Source\PSoC4/SPILCD_SPI.c ****         SPILCD_IntrTxMask = LO16(SPILCD_GetTxInterruptMode() & SPILCD_INTR_SPIS_TX_RESTORE);
 429:Generated_Source\PSoC4/SPILCD_SPI.c ****     #endif /* (SPILCD_SPI_MASTER_CONST) */
 430:Generated_Source\PSoC4/SPILCD_SPI.c **** 
 431:Generated_Source\PSoC4/SPILCD_SPI.c **** #endif /* (SPILCD_SCB_MODE_UNCONFIG_CONST_CFG) */
 432:Generated_Source\PSoC4/SPILCD_SPI.c **** }
  96              		.loc 1 432 0
  97              		@ sp needed
  98 002a 10BD     		pop	{r4, pc}
  99              	.L6:
 100              		.align	2
 101              	.L5:
 102 002c 20000740 		.word	1074200608
 103 0030 00000140 		.word	1073807360
 104 0034 FFFFFFF0 		.word	-251658241
 105 0038 880F0740 		.word	1074204552
 106 003c 00000000 		.word	SPILCD_IntrTxMask
 107              		.cfi_endproc
 108              	.LFE2:
 109              		.size	SPILCD_SpiStop, .-SPILCD_SpiStop
 110              		.section	.text.SPILCD_SpiSetActiveSlaveSelect,"ax",%progbits
 111              		.align	2
 112              		.global	SPILCD_SpiSetActiveSlaveSelect
 113              		.code	16
 114              		.thumb_func
 115              		.type	SPILCD_SpiSetActiveSlaveSelect, %function
 116              	SPILCD_SpiSetActiveSlaveSelect:
 117              	.LFB3:
 433:Generated_Source\PSoC4/SPILCD_SPI.c **** 
 434:Generated_Source\PSoC4/SPILCD_SPI.c **** 
 435:Generated_Source\PSoC4/SPILCD_SPI.c **** #if (SPILCD_SPI_MASTER_CONST)
 436:Generated_Source\PSoC4/SPILCD_SPI.c ****     /*******************************************************************************
 437:Generated_Source\PSoC4/SPILCD_SPI.c ****     * Function Name: SPILCD_SetActiveSlaveSelect
 438:Generated_Source\PSoC4/SPILCD_SPI.c ****     ****************************************************************************//**
 439:Generated_Source\PSoC4/SPILCD_SPI.c ****     *
 440:Generated_Source\PSoC4/SPILCD_SPI.c ****     *  Selects one of the four slave select lines to be active during the transfer.
 441:Generated_Source\PSoC4/SPILCD_SPI.c ****     *  After initialization the active slave select line is 0.
 442:Generated_Source\PSoC4/SPILCD_SPI.c ****     *  The component should be in one of the following states to change the active
 443:Generated_Source\PSoC4/SPILCD_SPI.c ****     *  slave select signal source correctly:
 444:Generated_Source\PSoC4/SPILCD_SPI.c ****     *   - The component is disabled.
 445:Generated_Source\PSoC4/SPILCD_SPI.c ****     *   - The component has completed transfer (TX FIFO is empty and the
 446:Generated_Source\PSoC4/SPILCD_SPI.c ****     *     SCB_INTR_MASTER_SPI_DONE status is set).
 447:Generated_Source\PSoC4/SPILCD_SPI.c ****     *
 448:Generated_Source\PSoC4/SPILCD_SPI.c ****     *  This function does not check that these conditions are met.
 449:Generated_Source\PSoC4/SPILCD_SPI.c ****     *  This function is only applicable to SPI Master mode of operation.
 450:Generated_Source\PSoC4/SPILCD_SPI.c ****     *
 451:Generated_Source\PSoC4/SPILCD_SPI.c ****     *  \param slaveSelect: slave select line which will be active while the following
 452:Generated_Source\PSoC4/SPILCD_SPI.c ****     *   transfer.
 453:Generated_Source\PSoC4/SPILCD_SPI.c ****     *   - SPILCD_SPI_SLAVE_SELECT0 - Slave select 0.
ARM GAS  C:\Users\Jesus\AppData\Local\Temp\cciIjUXf.s 			page 11


 454:Generated_Source\PSoC4/SPILCD_SPI.c ****     *   - SPILCD_SPI_SLAVE_SELECT1 - Slave select 1.
 455:Generated_Source\PSoC4/SPILCD_SPI.c ****     *   - SPILCD_SPI_SLAVE_SELECT2 - Slave select 2.
 456:Generated_Source\PSoC4/SPILCD_SPI.c ****     *   - SPILCD_SPI_SLAVE_SELECT3 - Slave select 3.
 457:Generated_Source\PSoC4/SPILCD_SPI.c ****     *
 458:Generated_Source\PSoC4/SPILCD_SPI.c ****     *******************************************************************************/
 459:Generated_Source\PSoC4/SPILCD_SPI.c ****     void SPILCD_SpiSetActiveSlaveSelect(uint32 slaveSelect)
 460:Generated_Source\PSoC4/SPILCD_SPI.c ****     {
 118              		.loc 1 460 0
 119              		.cfi_startproc
 120              		@ args = 0, pretend = 0, frame = 0
 121              		@ frame_needed = 0, uses_anonymous_args = 0
 122              		@ link register save eliminated.
 123              	.LVL1:
 461:Generated_Source\PSoC4/SPILCD_SPI.c ****         uint32 spiCtrl;
 462:Generated_Source\PSoC4/SPILCD_SPI.c **** 
 463:Generated_Source\PSoC4/SPILCD_SPI.c ****         spiCtrl = SPILCD_SPI_CTRL_REG;
 124              		.loc 1 463 0
 125 0000 0549     		ldr	r1, .L8
 126 0002 0A68     		ldr	r2, [r1]
 127              	.LVL2:
 464:Generated_Source\PSoC4/SPILCD_SPI.c **** 
 465:Generated_Source\PSoC4/SPILCD_SPI.c ****         spiCtrl &= (uint32) ~SPILCD_SPI_CTRL_SLAVE_SELECT_MASK;
 128              		.loc 1 465 0
 129 0004 054B     		ldr	r3, .L8+4
 130 0006 1A40     		ands	r2, r3
 131              	.LVL3:
 466:Generated_Source\PSoC4/SPILCD_SPI.c ****         spiCtrl |= (uint32)  SPILCD_GET_SPI_CTRL_SS(slaveSelect);
 132              		.loc 1 466 0
 133 0008 8006     		lsls	r0, r0, #26
 134              	.LVL4:
 135 000a C023     		movs	r3, #192
 136 000c 1B05     		lsls	r3, r3, #20
 137 000e 1840     		ands	r0, r3
 138 0010 1043     		orrs	r0, r2
 139              	.LVL5:
 467:Generated_Source\PSoC4/SPILCD_SPI.c **** 
 468:Generated_Source\PSoC4/SPILCD_SPI.c ****         SPILCD_SPI_CTRL_REG = spiCtrl;
 140              		.loc 1 468 0
 141 0012 0860     		str	r0, [r1]
 469:Generated_Source\PSoC4/SPILCD_SPI.c ****     }
 142              		.loc 1 469 0
 143              		@ sp needed
 144 0014 7047     		bx	lr
 145              	.L9:
 146 0016 C046     		.align	2
 147              	.L8:
 148 0018 20000740 		.word	1074200608
 149 001c FFFFFFF3 		.word	-201326593
 150              		.cfi_endproc
 151              	.LFE3:
 152              		.size	SPILCD_SpiSetActiveSlaveSelect, .-SPILCD_SpiSetActiveSlaveSelect
 153              		.section	.text.SPILCD_SpiInit,"ax",%progbits
 154              		.align	2
 155              		.global	SPILCD_SpiInit
 156              		.code	16
 157              		.thumb_func
 158              		.type	SPILCD_SpiInit, %function
ARM GAS  C:\Users\Jesus\AppData\Local\Temp\cciIjUXf.s 			page 12


 159              	SPILCD_SpiInit:
 160              	.LFB0:
 173:Generated_Source\PSoC4/SPILCD_SPI.c ****         /* Configure SPI interface */
 161              		.loc 1 173 0
 162              		.cfi_startproc
 163              		@ args = 0, pretend = 0, frame = 0
 164              		@ frame_needed = 0, uses_anonymous_args = 0
 165 0000 10B5     		push	{r4, lr}
 166              		.cfi_def_cfa_offset 8
 167              		.cfi_offset 4, -8
 168              		.cfi_offset 14, -4
 175:Generated_Source\PSoC4/SPILCD_SPI.c ****         SPILCD_SPI_CTRL_REG = SPILCD_SPI_DEFAULT_SPI_CTRL;
 169              		.loc 1 175 0
 170 0002 124A     		ldr	r2, .L11
 171 0004 124B     		ldr	r3, .L11+4
 172 0006 1A60     		str	r2, [r3]
 176:Generated_Source\PSoC4/SPILCD_SPI.c **** 
 173              		.loc 1 176 0
 174 0008 124A     		ldr	r2, .L11+8
 175 000a 134B     		ldr	r3, .L11+12
 176 000c 1A60     		str	r2, [r3]
 179:Generated_Source\PSoC4/SPILCD_SPI.c ****         SPILCD_RX_FIFO_CTRL_REG = SPILCD_SPI_DEFAULT_RX_FIFO_CTRL;
 177              		.loc 1 179 0
 178 000e 134B     		ldr	r3, .L11+16
 179 0010 134A     		ldr	r2, .L11+20
 180 0012 1360     		str	r3, [r2]
 180:Generated_Source\PSoC4/SPILCD_SPI.c **** 
 181              		.loc 1 180 0
 182 0014 0721     		movs	r1, #7
 183 0016 134A     		ldr	r2, .L11+24
 184 0018 1160     		str	r1, [r2]
 183:Generated_Source\PSoC4/SPILCD_SPI.c ****         SPILCD_TX_FIFO_CTRL_REG = SPILCD_SPI_DEFAULT_TX_FIFO_CTRL;
 185              		.loc 1 183 0
 186 001a 134A     		ldr	r2, .L11+28
 187 001c 1360     		str	r3, [r2]
 184:Generated_Source\PSoC4/SPILCD_SPI.c **** 
 188              		.loc 1 184 0
 189 001e 0023     		movs	r3, #0
 190 0020 124A     		ldr	r2, .L11+32
 191 0022 1360     		str	r3, [r2]
 194:Generated_Source\PSoC4/SPILCD_SPI.c ****         SPILCD_INTR_SPI_EC_MASK_REG = SPILCD_SPI_DEFAULT_INTR_SPI_EC_MASK;
 192              		.loc 1 194 0
 193 0024 124A     		ldr	r2, .L11+36
 194 0026 1360     		str	r3, [r2]
 195:Generated_Source\PSoC4/SPILCD_SPI.c ****         SPILCD_INTR_SLAVE_MASK_REG  = SPILCD_SPI_DEFAULT_INTR_SLAVE_MASK;
 195              		.loc 1 195 0
 196 0028 124A     		ldr	r2, .L11+40
 197 002a 1360     		str	r3, [r2]
 196:Generated_Source\PSoC4/SPILCD_SPI.c ****         SPILCD_INTR_MASTER_MASK_REG = SPILCD_SPI_DEFAULT_INTR_MASTER_MASK;
 198              		.loc 1 196 0
 199 002c 124A     		ldr	r2, .L11+44
 200 002e 1360     		str	r3, [r2]
 197:Generated_Source\PSoC4/SPILCD_SPI.c ****         SPILCD_INTR_RX_MASK_REG     = SPILCD_SPI_DEFAULT_INTR_RX_MASK;
 201              		.loc 1 197 0
 202 0030 124A     		ldr	r2, .L11+48
 203 0032 1360     		str	r3, [r2]
 198:Generated_Source\PSoC4/SPILCD_SPI.c ****         SPILCD_INTR_TX_MASK_REG     = SPILCD_SPI_DEFAULT_INTR_TX_MASK;
ARM GAS  C:\Users\Jesus\AppData\Local\Temp\cciIjUXf.s 			page 13


 204              		.loc 1 198 0
 205 0034 124A     		ldr	r2, .L11+52
 206 0036 1360     		str	r3, [r2]
 199:Generated_Source\PSoC4/SPILCD_SPI.c **** 
 207              		.loc 1 199 0
 208 0038 124A     		ldr	r2, .L11+56
 209 003a 1360     		str	r3, [r2]
 202:Generated_Source\PSoC4/SPILCD_SPI.c ****             
 210              		.loc 1 202 0
 211 003c 1268     		ldr	r2, [r2]
 212 003e 124B     		ldr	r3, .L11+60
 213 0040 1A80     		strh	r2, [r3]
 206:Generated_Source\PSoC4/SPILCD_SPI.c ****     #endif /* (SPILCD_SPI_MASTER_CONST) */
 214              		.loc 1 206 0
 215 0042 0020     		movs	r0, #0
 216 0044 FFF7FEFF 		bl	SPILCD_SpiSetActiveSlaveSelect
 217              	.LVL6:
 219:Generated_Source\PSoC4/SPILCD_SPI.c **** #endif /* (SPILCD_SCB_MODE_UNCONFIG_CONST_CFG) */
 218              		.loc 1 219 0
 219              		@ sp needed
 220 0048 10BD     		pop	{r4, pc}
 221              	.L12:
 222 004a C046     		.align	2
 223              	.L11:
 224 004c 05000001 		.word	16777221
 225 0050 00000740 		.word	1074200576
 226 0054 01000080 		.word	-2147483647
 227 0058 20000740 		.word	1074200608
 228 005c 07010080 		.word	-2147483385
 229 0060 00030740 		.word	1074201344
 230 0064 04030740 		.word	1074201348
 231 0068 00020740 		.word	1074201088
 232 006c 04020740 		.word	1074201092
 233 0070 880E0740 		.word	1074204296
 234 0074 C80E0740 		.word	1074204360
 235 0078 480F0740 		.word	1074204488
 236 007c 080F0740 		.word	1074204424
 237 0080 C80F0740 		.word	1074204616
 238 0084 880F0740 		.word	1074204552
 239 0088 00000000 		.word	SPILCD_IntrTxMask
 240              		.cfi_endproc
 241              	.LFE0:
 242              		.size	SPILCD_SpiInit, .-SPILCD_SpiInit
 243              		.text
 244              	.Letext0:
 245              		.file 2 "Generated_Source\\PSoC4/cytypes.h"
 246              		.file 3 "Generated_Source\\PSoC4\\SPILCD_PVT.h"
 247              		.file 4 "Generated_Source\\PSoC4\\SPILCD_sclk_m.h"