ARM GAS  C:\Users\Jesus\AppData\Local\Temp\ccukX0uX.s 			page 1


   1              		.syntax unified
   2              		.cpu cortex-m0
   3              		.fpu softvfp
   4              		.eabi_attribute 20, 1
   5              		.eabi_attribute 21, 1
   6              		.eabi_attribute 23, 3
   7              		.eabi_attribute 24, 1
   8              		.eabi_attribute 25, 1
   9              		.eabi_attribute 26, 1
  10              		.eabi_attribute 30, 1
  11              		.eabi_attribute 34, 0
  12              		.eabi_attribute 18, 4
  13              		.thumb
  14              		.syntax unified
  15              		.file	"UC1608.c"
  16              		.text
  17              	.Ltext0:
  18              		.cfi_sections	.debug_frame
  19              		.section	.text.UC1608_Write_Command,"ax",%progbits
  20              		.align	2
  21              		.global	UC1608_Write_Command
  22              		.code	16
  23              		.thumb_func
  24              		.type	UC1608_Write_Command, %function
  25              	UC1608_Write_Command:
  26              	.LFB32:
  27              		.file 1 "UC1608.c"
   1:UC1608.c      **** /* ========================================
   2:UC1608.c      ****  *
   3:UC1608.c      ****  * Copyright YOUR COMPANY, THE YEAR
   4:UC1608.c      ****  * All Rights Reserved
   5:UC1608.c      ****  * UNPUBLISHED, LICENSED SOFTWARE.
   6:UC1608.c      ****  *
   7:UC1608.c      ****  * CONFIDENTIAL AND PROPRIETARY INFORMATION
   8:UC1608.c      ****  * WHICH IS THE PROPERTY OF your company.
   9:UC1608.c      ****  *
  10:UC1608.c      ****  * ========================================
  11:UC1608.c      **** */
  12:UC1608.c      **** 
  13:UC1608.c      **** #include "project.h"
  14:UC1608.c      **** #include "UC1608.h"
  15:UC1608.c      **** 
  16:UC1608.c      **** void UC1608_Write_Command(uint8 command); 
  17:UC1608.c      **** void UC1608_Write_Data(uint8 data);
  18:UC1608.c      **** 
  19:UC1608.c      **** uint8 contrast_value = 11;
  20:UC1608.c      **** 
  21:UC1608.c      **** void UC1608_Write_Command(uint8 command)
  22:UC1608.c      **** {
  28              		.loc 1 22 0
  29              		.cfi_startproc
  30              		@ args = 0, pretend = 0, frame = 0
  31              		@ frame_needed = 0, uses_anonymous_args = 0
  32              	.LVL0:
  33 0000 10B5     		push	{r4, lr}
  34              		.cfi_def_cfa_offset 8
  35              		.cfi_offset 4, -8
ARM GAS  C:\Users\Jesus\AppData\Local\Temp\ccukX0uX.s 			page 2


  36              		.cfi_offset 14, -4
  37 0002 0400     		movs	r4, r0
  23:UC1608.c      ****     /* When CD line = 0 data sent is command. */
  24:UC1608.c      ****     LCD_CD_Write(0); 
  38              		.loc 1 24 0
  39 0004 0020     		movs	r0, #0
  40              	.LVL1:
  41 0006 FFF7FEFF 		bl	LCD_CD_Write
  42              	.LVL2:
  25:UC1608.c      ****     SPILCD_SpiUartWriteTxData(command);
  43              		.loc 1 25 0
  44 000a 2000     		movs	r0, r4
  45 000c FFF7FEFF 		bl	SPILCD_SpiUartWriteTxData
  46              	.LVL3:
  26:UC1608.c      **** }
  47              		.loc 1 26 0
  48              		@ sp needed
  49 0010 10BD     		pop	{r4, pc}
  50              		.cfi_endproc
  51              	.LFE32:
  52              		.size	UC1608_Write_Command, .-UC1608_Write_Command
  53 0012 C046     		.section	.text.UC1608_Write_data,"ax",%progbits
  54              		.align	2
  55              		.global	UC1608_Write_data
  56              		.code	16
  57              		.thumb_func
  58              		.type	UC1608_Write_data, %function
  59              	UC1608_Write_data:
  60              	.LFB33:
  27:UC1608.c      **** 
  28:UC1608.c      **** void UC1608_Write_data(uint8 data)
  29:UC1608.c      **** {
  61              		.loc 1 29 0
  62              		.cfi_startproc
  63              		@ args = 0, pretend = 0, frame = 0
  64              		@ frame_needed = 0, uses_anonymous_args = 0
  65              	.LVL4:
  66 0000 10B5     		push	{r4, lr}
  67              		.cfi_def_cfa_offset 8
  68              		.cfi_offset 4, -8
  69              		.cfi_offset 14, -4
  70 0002 0400     		movs	r4, r0
  30:UC1608.c      ****     /* When CD line = 1 data sent is display data. */
  31:UC1608.c      ****     LCD_CD_Write(1);
  71              		.loc 1 31 0
  72 0004 0120     		movs	r0, #1
  73              	.LVL5:
  74 0006 FFF7FEFF 		bl	LCD_CD_Write
  75              	.LVL6:
  32:UC1608.c      ****     SPILCD_SpiUartWriteTxData(data);
  76              		.loc 1 32 0
  77 000a 2000     		movs	r0, r4
  78 000c FFF7FEFF 		bl	SPILCD_SpiUartWriteTxData
  79              	.LVL7:
  33:UC1608.c      **** }
  80              		.loc 1 33 0
  81              		@ sp needed
ARM GAS  C:\Users\Jesus\AppData\Local\Temp\ccukX0uX.s 			page 3


  82 0010 10BD     		pop	{r4, pc}
  83              		.cfi_endproc
  84              	.LFE33:
  85              		.size	UC1608_Write_data, .-UC1608_Write_data
  86 0012 C046     		.section	.text.LCD_Init,"ax",%progbits
  87              		.align	2
  88              		.global	LCD_Init
  89              		.code	16
  90              		.thumb_func
  91              		.type	LCD_Init, %function
  92              	LCD_Init:
  93              	.LFB34:
  34:UC1608.c      **** 
  35:UC1608.c      **** void LCD_Init()
  36:UC1608.c      **** {
  94              		.loc 1 36 0
  95              		.cfi_startproc
  96              		@ args = 0, pretend = 0, frame = 0
  97              		@ frame_needed = 0, uses_anonymous_args = 0
  98 0000 10B5     		push	{r4, lr}
  99              		.cfi_def_cfa_offset 8
 100              		.cfi_offset 4, -8
 101              		.cfi_offset 14, -4
  37:UC1608.c      ****     /* Hardware reset. */
  38:UC1608.c      ****     LCD_RESET_Write(0);
 102              		.loc 1 38 0
 103 0002 0020     		movs	r0, #0
 104 0004 FFF7FEFF 		bl	LCD_RESET_Write
 105              	.LVL8:
  39:UC1608.c      ****     CyDelay(5);
 106              		.loc 1 39 0
 107 0008 0520     		movs	r0, #5
 108 000a FFF7FEFF 		bl	CyDelay
 109              	.LVL9:
  40:UC1608.c      ****     LCD_RESET_Write(1);
 110              		.loc 1 40 0
 111 000e 0120     		movs	r0, #1
 112 0010 FFF7FEFF 		bl	LCD_RESET_Write
 113              	.LVL10:
  41:UC1608.c      ****     CyDelay(5);
 114              		.loc 1 41 0
 115 0014 0520     		movs	r0, #5
 116 0016 FFF7FEFF 		bl	CyDelay
 117              	.LVL11:
  42:UC1608.c      ****     
  43:UC1608.c      ****     /* Software reset. */
  44:UC1608.c      ****     UC1608_Write_Command(0xE2);
 118              		.loc 1 44 0
 119 001a E220     		movs	r0, #226
 120 001c FFF7FEFF 		bl	UC1608_Write_Command
 121              	.LVL12:
  45:UC1608.c      ****     CyDelay(30);
 122              		.loc 1 45 0
 123 0020 1E20     		movs	r0, #30
 124 0022 FFF7FEFF 		bl	CyDelay
 125              	.LVL13:
  46:UC1608.c      ****     
ARM GAS  C:\Users\Jesus\AppData\Local\Temp\ccukX0uX.s 			page 4


  47:UC1608.c      ****     /* Configure display. */
  48:UC1608.c      ****     UC1608_Write_Command(0x23);                     // Mux. ratio :96, Temperature compensation = -
 126              		.loc 1 48 0
 127 0026 2320     		movs	r0, #35
 128 0028 FFF7FEFF 		bl	UC1608_Write_Command
 129              	.LVL14:
  49:UC1608.c      ****    	UC1608_Write_Command(0xC8);                     // Set LCD mapping control. MX=0, MY=1
 130              		.loc 1 49 0
 131 002c C820     		movs	r0, #200
 132 002e FFF7FEFF 		bl	UC1608_Write_Command
 133              	.LVL15:
  50:UC1608.c      **** 	UC1608_Write_Command(0xE8);                     // LCD bias ratio = 1/10.7
 134              		.loc 1 50 0
 135 0032 E820     		movs	r0, #232
 136 0034 FFF7FEFF 		bl	UC1608_Write_Command
 137              	.LVL16:
  51:UC1608.c      **** 	UC1608_Write_Command(0x81);                     // Set Gain and Potentiometer
 138              		.loc 1 51 0
 139 0038 8120     		movs	r0, #129
 140 003a FFF7FEFF 		bl	UC1608_Write_Command
 141              	.LVL17:
  52:UC1608.c      ****     UC1608_Write_Command(0x00 | contrast_value);     
 142              		.loc 1 52 0
 143 003e 104B     		ldr	r3, .L4
 144 0040 1878     		ldrb	r0, [r3]
 145 0042 FFF7FEFF 		bl	UC1608_Write_Command
 146              	.LVL18:
  53:UC1608.c      **** 	UC1608_Write_Command(0x2F);                     // Use internal charge pump. Internal VLCD.	
 147              		.loc 1 53 0
 148 0046 2F20     		movs	r0, #47
 149 0048 FFF7FEFF 		bl	UC1608_Write_Command
 150              	.LVL19:
  54:UC1608.c      **** 	UC1608_Write_Command(0x40);                     // Start line = 0.
 151              		.loc 1 54 0
 152 004c 4020     		movs	r0, #64
 153 004e FFF7FEFF 		bl	UC1608_Write_Command
 154              	.LVL20:
  55:UC1608.c      **** 	UC1608_Write_Command(0xA4);                     // All pixels OFF.
 155              		.loc 1 55 0
 156 0052 A420     		movs	r0, #164
 157 0054 FFF7FEFF 		bl	UC1608_Write_Command
 158              	.LVL21:
  56:UC1608.c      **** //	Write_Instruction(0xA5);                        //--set  all pixel on
  57:UC1608.c      **** 	UC1608_Write_Command(0xA6);                     //--set normal display
 159              		.loc 1 57 0
 160 0058 A620     		movs	r0, #166
 161 005a FFF7FEFF 		bl	UC1608_Write_Command
 162              	.LVL22:
  58:UC1608.c      **** //    UC1608_Write_Command(0xA7);                        //--set inverse display
  59:UC1608.c      **** 	UC1608_Write_Command(0x89);                     // Set RAM Address control
 163              		.loc 1 59 0
 164 005e 8920     		movs	r0, #137
 165 0060 FFF7FEFF 		bl	UC1608_Write_Command
 166              	.LVL23:
  60:UC1608.c      **** //  Write_Instruction(0x90);                        //set fixed lines 1001xxxx
  61:UC1608.c      ****     UC1608_Write_Command(0xB0);                     // Page address = 0.
 167              		.loc 1 61 0
ARM GAS  C:\Users\Jesus\AppData\Local\Temp\ccukX0uX.s 			page 5


 168 0064 B020     		movs	r0, #176
 169 0066 FFF7FEFF 		bl	UC1608_Write_Command
 170              	.LVL24:
  62:UC1608.c      ****     UC1608_Write_Command(0x00);                     // Column address = 0.
 171              		.loc 1 62 0
 172 006a 0020     		movs	r0, #0
 173 006c FFF7FEFF 		bl	UC1608_Write_Command
 174              	.LVL25:
  63:UC1608.c      ****     UC1608_Write_Command(0x10);                     
 175              		.loc 1 63 0
 176 0070 1020     		movs	r0, #16
 177 0072 FFF7FEFF 		bl	UC1608_Write_Command
 178              	.LVL26:
  64:UC1608.c      ****     UC1608_Write_Command(0xAF);                     // Enable the display.
 179              		.loc 1 64 0
 180 0076 AF20     		movs	r0, #175
 181 0078 FFF7FEFF 		bl	UC1608_Write_Command
 182              	.LVL27:
  65:UC1608.c      **** }
 183              		.loc 1 65 0
 184              		@ sp needed
 185 007c 10BD     		pop	{r4, pc}
 186              	.L5:
 187 007e C046     		.align	2
 188              	.L4:
 189 0080 00000000 		.word	.LANCHOR0
 190              		.cfi_endproc
 191              	.LFE34:
 192              		.size	LCD_Init, .-LCD_Init
 193              		.section	.text.LCD_SetPageAddress,"ax",%progbits
 194              		.align	2
 195              		.global	LCD_SetPageAddress
 196              		.code	16
 197              		.thumb_func
 198              		.type	LCD_SetPageAddress, %function
 199              	LCD_SetPageAddress:
 200              	.LFB36:
  66:UC1608.c      **** 
  67:UC1608.c      **** void LCD_Clear()
  68:UC1608.c      **** {
  69:UC1608.c      ****     uint8 page, column;
  70:UC1608.c      ****     
  71:UC1608.c      ****     for (page = 0; page < 8; page++)
  72:UC1608.c      ****     {
  73:UC1608.c      ****         LCD_SetPageAddress(page);
  74:UC1608.c      ****         LCD_SetColumnAddress(0);
  75:UC1608.c      ****         
  76:UC1608.c      ****         for (column = 0; column < 240; column++)
  77:UC1608.c      ****         {
  78:UC1608.c      ****             UC1608_Write_data(0x80);
  79:UC1608.c      ****         }
  80:UC1608.c      ****     }
  81:UC1608.c      **** }
  82:UC1608.c      **** 
  83:UC1608.c      **** void LCD_SetPageAddress(uint8 page)
  84:UC1608.c      **** {
 201              		.loc 1 84 0
ARM GAS  C:\Users\Jesus\AppData\Local\Temp\ccukX0uX.s 			page 6


 202              		.cfi_startproc
 203              		@ args = 0, pretend = 0, frame = 0
 204              		@ frame_needed = 0, uses_anonymous_args = 0
 205              	.LVL28:
 206 0000 10B5     		push	{r4, lr}
 207              		.cfi_def_cfa_offset 8
 208              		.cfi_offset 4, -8
 209              		.cfi_offset 14, -4
  85:UC1608.c      ****     UC1608_Write_Command(0xB0 | page);
 210              		.loc 1 85 0
 211 0002 5023     		movs	r3, #80
 212 0004 5B42     		rsbs	r3, r3, #0
 213 0006 1843     		orrs	r0, r3
 214              	.LVL29:
 215 0008 C0B2     		uxtb	r0, r0
 216 000a FFF7FEFF 		bl	UC1608_Write_Command
 217              	.LVL30:
  86:UC1608.c      **** 	
  87:UC1608.c      ****     return;
  88:UC1608.c      **** }
 218              		.loc 1 88 0
 219              		@ sp needed
 220 000e 10BD     		pop	{r4, pc}
 221              		.cfi_endproc
 222              	.LFE36:
 223              		.size	LCD_SetPageAddress, .-LCD_SetPageAddress
 224              		.section	.text.LCD_SetColumnAddress,"ax",%progbits
 225              		.align	2
 226              		.global	LCD_SetColumnAddress
 227              		.code	16
 228              		.thumb_func
 229              		.type	LCD_SetColumnAddress, %function
 230              	LCD_SetColumnAddress:
 231              	.LFB37:
  89:UC1608.c      **** 
  90:UC1608.c      **** //**********************************************************
  91:UC1608.c      **** //  Set Column Address
  92:UC1608.c      **** //**********************************************************
  93:UC1608.c      **** void LCD_SetColumnAddress(uint8 column)
  94:UC1608.c      **** {
 232              		.loc 1 94 0
 233              		.cfi_startproc
 234              		@ args = 0, pretend = 0, frame = 0
 235              		@ frame_needed = 0, uses_anonymous_args = 0
 236              	.LVL31:
 237 0000 10B5     		push	{r4, lr}
 238              		.cfi_def_cfa_offset 8
 239              		.cfi_offset 4, -8
 240              		.cfi_offset 14, -4
 241 0002 0400     		movs	r4, r0
  95:UC1608.c      ****     UC1608_Write_Command((0x10 |(column >> 4)));
 242              		.loc 1 95 0
 243 0004 0009     		lsrs	r0, r0, #4
 244              	.LVL32:
 245 0006 1023     		movs	r3, #16
 246 0008 0343     		orrs	r3, r0
 247 000a D8B2     		uxtb	r0, r3
ARM GAS  C:\Users\Jesus\AppData\Local\Temp\ccukX0uX.s 			page 7


 248 000c FFF7FEFF 		bl	UC1608_Write_Command
 249              	.LVL33:
  96:UC1608.c      **** 	UC1608_Write_Command((0x0F & column));
 250              		.loc 1 96 0
 251 0010 0F20     		movs	r0, #15
 252 0012 2040     		ands	r0, r4
 253 0014 FFF7FEFF 		bl	UC1608_Write_Command
 254              	.LVL34:
  97:UC1608.c      **** 	return;
  98:UC1608.c      **** }
 255              		.loc 1 98 0
 256              		@ sp needed
 257 0018 10BD     		pop	{r4, pc}
 258              		.cfi_endproc
 259              	.LFE37:
 260              		.size	LCD_SetColumnAddress, .-LCD_SetColumnAddress
 261 001a C046     		.section	.text.LCD_Clear,"ax",%progbits
 262              		.align	2
 263              		.global	LCD_Clear
 264              		.code	16
 265              		.thumb_func
 266              		.type	LCD_Clear, %function
 267              	LCD_Clear:
 268              	.LFB35:
  68:UC1608.c      ****     uint8 page, column;
 269              		.loc 1 68 0
 270              		.cfi_startproc
 271              		@ args = 0, pretend = 0, frame = 0
 272              		@ frame_needed = 0, uses_anonymous_args = 0
 273 0000 70B5     		push	{r4, r5, r6, lr}
 274              		.cfi_def_cfa_offset 16
 275              		.cfi_offset 4, -16
 276              		.cfi_offset 5, -12
 277              		.cfi_offset 6, -8
 278              		.cfi_offset 14, -4
 279              	.LVL35:
  71:UC1608.c      ****     {
 280              		.loc 1 71 0
 281 0002 0025     		movs	r5, #0
 282 0004 10E0     		b	.L9
 283              	.LVL36:
 284              	.L12:
  73:UC1608.c      ****         LCD_SetColumnAddress(0);
 285              		.loc 1 73 0
 286 0006 2800     		movs	r0, r5
 287 0008 FFF7FEFF 		bl	LCD_SetPageAddress
 288              	.LVL37:
  74:UC1608.c      ****         
 289              		.loc 1 74 0
 290 000c 0020     		movs	r0, #0
 291 000e FFF7FEFF 		bl	LCD_SetColumnAddress
 292              	.LVL38:
  76:UC1608.c      ****         {
 293              		.loc 1 76 0
 294 0012 0024     		movs	r4, #0
 295 0014 04E0     		b	.L10
 296              	.LVL39:
ARM GAS  C:\Users\Jesus\AppData\Local\Temp\ccukX0uX.s 			page 8


 297              	.L11:
  78:UC1608.c      ****         }
 298              		.loc 1 78 0 discriminator 3
 299 0016 8020     		movs	r0, #128
 300 0018 FFF7FEFF 		bl	UC1608_Write_data
 301              	.LVL40:
  76:UC1608.c      ****         {
 302              		.loc 1 76 0 discriminator 3
 303 001c 0134     		adds	r4, r4, #1
 304              	.LVL41:
 305 001e E4B2     		uxtb	r4, r4
 306              	.LVL42:
 307              	.L10:
  76:UC1608.c      ****         {
 308              		.loc 1 76 0 is_stmt 0 discriminator 1
 309 0020 EF2C     		cmp	r4, #239
 310 0022 F8D9     		bls	.L11
  71:UC1608.c      ****     {
 311              		.loc 1 71 0 is_stmt 1 discriminator 2
 312 0024 0135     		adds	r5, r5, #1
 313              	.LVL43:
 314 0026 EDB2     		uxtb	r5, r5
 315              	.LVL44:
 316              	.L9:
  71:UC1608.c      ****     {
 317              		.loc 1 71 0 is_stmt 0 discriminator 1
 318 0028 072D     		cmp	r5, #7
 319 002a ECD9     		bls	.L12
  81:UC1608.c      **** 
 320              		.loc 1 81 0 is_stmt 1
 321              		@ sp needed
 322              	.LVL45:
 323 002c 70BD     		pop	{r4, r5, r6, pc}
 324              		.cfi_endproc
 325              	.LFE35:
 326              		.size	LCD_Clear, .-LCD_Clear
 327 002e C046     		.section	.text.LCD_SetContrast,"ax",%progbits
 328              		.align	2
 329              		.global	LCD_SetContrast
 330              		.code	16
 331              		.thumb_func
 332              		.type	LCD_SetContrast, %function
 333              	LCD_SetContrast:
 334              	.LFB38:
  99:UC1608.c      **** 
 100:UC1608.c      **** 
 101:UC1608.c      **** 
 102:UC1608.c      **** 
 103:UC1608.c      **** //**********************************************************
 104:UC1608.c      **** //  Set Contrast Control Register
 105:UC1608.c      **** //**********************************************************
 106:UC1608.c      **** void LCD_SetContrast(uint8 contrast_value)
 107:UC1608.c      **** {
 335              		.loc 1 107 0
 336              		.cfi_startproc
 337              		@ args = 0, pretend = 0, frame = 0
 338              		@ frame_needed = 0, uses_anonymous_args = 0
ARM GAS  C:\Users\Jesus\AppData\Local\Temp\ccukX0uX.s 			page 9


 339              	.LVL46:
 340 0000 10B5     		push	{r4, lr}
 341              		.cfi_def_cfa_offset 8
 342              		.cfi_offset 4, -8
 343              		.cfi_offset 14, -4
 344 0002 0400     		movs	r4, r0
 108:UC1608.c      ****     UC1608_Write_Command(0x81);
 345              		.loc 1 108 0
 346 0004 8120     		movs	r0, #129
 347              	.LVL47:
 348 0006 FFF7FEFF 		bl	UC1608_Write_Command
 349              	.LVL48:
 109:UC1608.c      **** 	UC1608_Write_Command(0x00 | contrast_value);
 350              		.loc 1 109 0
 351 000a 2000     		movs	r0, r4
 352 000c FFF7FEFF 		bl	UC1608_Write_Command
 353              	.LVL49:
 110:UC1608.c      **** 	return;
 111:UC1608.c      **** }
 354              		.loc 1 111 0
 355              		@ sp needed
 356 0010 10BD     		pop	{r4, pc}
 357              		.cfi_endproc
 358              	.LFE38:
 359              		.size	LCD_SetContrast, .-LCD_SetContrast
 360 0012 C046     		.section	.text.LCD_DisplayNormal,"ax",%progbits
 361              		.align	2
 362              		.global	LCD_DisplayNormal
 363              		.code	16
 364              		.thumb_func
 365              		.type	LCD_DisplayNormal, %function
 366              	LCD_DisplayNormal:
 367              	.LFB39:
 112:UC1608.c      **** 
 113:UC1608.c      **** void LCD_DisplayNormal()
 114:UC1608.c      **** {
 368              		.loc 1 114 0
 369              		.cfi_startproc
 370              		@ args = 0, pretend = 0, frame = 0
 371              		@ frame_needed = 0, uses_anonymous_args = 0
 372 0000 10B5     		push	{r4, lr}
 373              		.cfi_def_cfa_offset 8
 374              		.cfi_offset 4, -8
 375              		.cfi_offset 14, -4
 115:UC1608.c      ****     UC1608_Write_Command(0xA7);
 376              		.loc 1 115 0
 377 0002 A720     		movs	r0, #167
 378 0004 FFF7FEFF 		bl	UC1608_Write_Command
 379              	.LVL50:
 116:UC1608.c      **** }
 380              		.loc 1 116 0
 381              		@ sp needed
 382 0008 10BD     		pop	{r4, pc}
 383              		.cfi_endproc
 384              	.LFE39:
 385              		.size	LCD_DisplayNormal, .-LCD_DisplayNormal
 386 000a C046     		.section	.text.LCD_DisplayReverse,"ax",%progbits
ARM GAS  C:\Users\Jesus\AppData\Local\Temp\ccukX0uX.s 			page 10


 387              		.align	2
 388              		.global	LCD_DisplayReverse
 389              		.code	16
 390              		.thumb_func
 391              		.type	LCD_DisplayReverse, %function
 392              	LCD_DisplayReverse:
 393              	.LFB40:
 117:UC1608.c      **** 
 118:UC1608.c      **** void LCD_DisplayReverse()
 119:UC1608.c      **** {
 394              		.loc 1 119 0
 395              		.cfi_startproc
 396              		@ args = 0, pretend = 0, frame = 0
 397              		@ frame_needed = 0, uses_anonymous_args = 0
 398 0000 10B5     		push	{r4, lr}
 399              		.cfi_def_cfa_offset 8
 400              		.cfi_offset 4, -8
 401              		.cfi_offset 14, -4
 120:UC1608.c      ****     UC1608_Write_Command(0xA6);
 402              		.loc 1 120 0
 403 0002 A620     		movs	r0, #166
 404 0004 FFF7FEFF 		bl	UC1608_Write_Command
 405              	.LVL51:
 121:UC1608.c      **** }
 406              		.loc 1 121 0
 407              		@ sp needed
 408 0008 10BD     		pop	{r4, pc}
 409              		.cfi_endproc
 410              	.LFE40:
 411              		.size	LCD_DisplayReverse, .-LCD_DisplayReverse
 412              		.global	contrast_value
 413 000a C046     		.data
 414              		.set	.LANCHOR0,. + 0
 415              		.type	contrast_value, %object
 416              		.size	contrast_value, 1
 417              	contrast_value:
 418 0000 0B       		.byte	11
 419              		.text
 420              	.Letext0:
 421              		.file 2 "Generated_Source\\PSoC4/LCD_CD.h"
 422              		.file 3 "Generated_Source\\PSoC4/SPILCD_SPI_UART.h"
 423              		.file 4 "Generated_Source\\PSoC4/LCD_RESET.h"
 424              		.file 5 "Generated_Source\\PSoC4/CyLib.h"
 425              		.file 6 "Generated_Source\\PSoC4/cytypes.h"